EXPORTS 
	??_R0?AU?$KeyPress@$0A@@input@gde@@@8 	 DATA
	??_R0?AU?$MouseDrag@$00@input@gde@@@8 	 DATA
	??_R0?AU?$MouseDrag@$01@input@gde@@@8 	 DATA
	??_R0?AUInputAction@input@gde@@@8 	 DATA
	??_R0?AUMouseScroll@input@gde@@@8 	 DATA
	??_R0?AV?$ActionImplementation@U?$KeyPress@$0A@@input@gde@@@input@gde@@@8 	 DATA
	??_R0?AV?$ActionImplementation@U?$MouseDrag@$00@input@gde@@@input@gde@@@8 	 DATA
	??_R0?AV?$ActionImplementation@U?$MouseDrag@$01@input@gde@@@input@gde@@@8 	 DATA
	??_R0?AV?$ActionImplementation@UMouseScroll@input@gde@@@input@gde@@@8 	 DATA
	??_R0?AV?$KeyPressImplementation@$0A@@input@gde@@@8 	 DATA
	??_R0?AV?$MouseDragImplementation@$00@input@gde@@@8 	 DATA
	??_R0?AV?$MouseDragImplementation@$01@input@gde@@@8 	 DATA
	??_R0?AV?$ObjectHandler@VEarlyUpdate@gde@@@gde@@@8 	 DATA
	??_R0?AV?$ObjectHandler@VInputPlayer@gde@@@gde@@@8 	 DATA
	??_R0?AV?$ObjectHandler@VLateUpdate@gde@@@gde@@@8 	 DATA
	??_R0?AV?$ObjectHandler@VLightObject@gde@@@gde@@@8 	 DATA
	??_R0?AV?$ObjectHandler@VUpdate@gde@@@gde@@@8 	 DATA
	??_R0?AV?$_Func_base@XN@std@@@8 	 DATA
	??_R0?AV?$_Func_base@XPEAVInputCustomer_base@gde@@@std@@@8 	 DATA
	??_R0?AV?$_Func_base@XPEAVObject@gde@@@std@@@8 	 DATA
	??_R0?AV?$_Func_base@XV?$basic_string@DU?$char_traits@D@std@@V?$allocator@D@2@@std@@PEAUInputAction@input@gde@@_N@std@@@8 	 DATA
	??_R0?AVActionImplementation_base@input@gde@@@8 	 DATA
	??_R0?AVChainJoint@gde@@@8 	 DATA
	??_R0?AVDirectionalLight@gde@@@8 	 DATA
	??_R0?AVEarlyUpdate@gde@@@8 	 DATA
	??_R0?AVForceVolume@gde@@@8 	 DATA
	??_R0?AVHandler@gde@@@8 	 DATA
	??_R0?AVInputHandler@gde@@@8 	 DATA
	??_R0?AVInputPlayer@gde@@@8 	 DATA
	??_R0?AVLateUpdate@gde@@@8 	 DATA
	??_R0?AVLightObject@gde@@@8 	 DATA
	??_R0?AVMouseScrollImplementation@input@gde@@@8 	 DATA
	??_R0?AVObject@gde@@@8 	 DATA
	??_R0?AVRoot@gde@@@8 	 DATA
	??_R0?AVUpdate@gde@@@8 	 DATA
	??_R0?AVbad_alloc@std@@@8 	 DATA
	??_R0?AVbad_array_new_length@std@@@8 	 DATA
	??_R0?AVexception@std@@@8 	 DATA
	?__LINE__Var@?0??_Adjust_manually_vector_aligned@std@@YAXAEAPEAXAEA_K@Z@4JA 	 DATA
	??$?0$$V@?$_Compressed_pair@V?$allocator@D@std@@V?$_String_val@U?$_Simple_types@D@std@@@2@$00@std@@QEAA@U_Zero_then_variadic_args_t@1@@Z
	??$?0$$V@?$_Compressed_pair@V?$allocator@U?$_List_node@PEAVActionImplementation_base@input@gde@@PEAX@std@@@std@@V?$_List_val@U?$_List_simple_types@PEAVActionImplementation_base@input@gde@@@std@@@2@$00@std@@QEAA@U_Zero_then_variadic_args_t@1@@Z
	??$?0$$V@?$_Compressed_pair@V?$allocator@U?$_List_node@PEAVEarlyUpdate@gde@@PEAX@std@@@std@@V?$_List_val@U?$_List_simple_types@PEAVEarlyUpdate@gde@@@std@@@2@$00@std@@QEAA@U_Zero_then_variadic_args_t@1@@Z
	??$?0$$V@?$_Compressed_pair@V?$allocator@U?$_List_node@PEAVHandler@gde@@PEAX@std@@@std@@V?$_List_val@U?$_List_simple_types@PEAVHandler@gde@@@std@@@2@$00@std@@QEAA@U_Zero_then_variadic_args_t@1@@Z
	??$?0$$V@?$_Compressed_pair@V?$allocator@U?$_List_node@PEAVInputPlayer@gde@@PEAX@std@@@std@@V?$_List_val@U?$_List_simple_types@PEAVInputPlayer@gde@@@std@@@2@$00@std@@QEAA@U_Zero_then_variadic_args_t@1@@Z
	??$?0$$V@?$_Compressed_pair@V?$allocator@U?$_List_node@PEAVLateUpdate@gde@@PEAX@std@@@std@@V?$_List_val@U?$_List_simple_types@PEAVLateUpdate@gde@@@std@@@2@$00@std@@QEAA@U_Zero_then_variadic_args_t@1@@Z
	??$?0$$V@?$_Compressed_pair@V?$allocator@U?$_List_node@PEAVLightObject@gde@@PEAX@std@@@std@@V?$_List_val@U?$_List_simple_types@PEAVLightObject@gde@@@std@@@2@$00@std@@QEAA@U_Zero_then_variadic_args_t@1@@Z
	??$?0$$V@?$_Compressed_pair@V?$allocator@U?$_List_node@PEAVObject@gde@@PEAX@std@@@std@@V?$_List_val@U?$_List_simple_types@PEAVObject@gde@@@std@@@2@$00@std@@QEAA@U_Zero_then_variadic_args_t@1@@Z
	??$?0$$V@?$_Compressed_pair@V?$allocator@U?$_List_node@PEAVUpdate@gde@@PEAX@std@@@std@@V?$_List_val@U?$_List_simple_types@PEAVUpdate@gde@@@std@@@2@$00@std@@QEAA@U_Zero_then_variadic_args_t@1@@Z
	??$?0AEAPEAU?$_List_node@U?$pair@$$CBV?$basic_string@DU?$char_traits@D@std@@V?$allocator@D@2@@std@@V?$list@PEAVActionImplementation_base@input@gde@@V?$allocator@PEAVActionImplementation_base@input@gde@@@std@@@2@@std@@PEAX@std@@_N$0A@@?$pair@PEAU?$_List_node@U?$pair@$$CBV?$basic_string@DU?$char_traits@D@std@@V?$allocator@D@2@@std@@V?$list@PEAVActionImplementation_base@input@gde@@V?$allocator@PEAVActionImplementation_base@input@gde@@@std@@@2@@std@@PEAX@std@@_N@std@@QEAA@AEAPEAU?$_List_node@U?$pair@$$CBV?$basic_string@DU?$char_traits@D@std@@V?$allocator@D@2@@std@@V?$list@PEAVActionImplementation_base@input@gde@@V?$allocator@PEAVActionImplementation_base@input@gde@@@std@@@2@@std@@PEAX@1@$$QEA_N@Z
	??$?0AEBQEAVActionImplementation_base@input@gde@@@?$_List_node_emplace_op2@V?$allocator@U?$_List_node@PEAVActionImplementation_base@input@gde@@PEAX@std@@@std@@@std@@QEAA@AEAV?$allocator@U?$_List_node@PEAVActionImplementation_base@input@gde@@PEAX@std@@@1@AEBQEAVActionImplementation_base@input@gde@@@Z
	??$?0AEBQEAVEarlyUpdate@gde@@@?$_List_node_emplace_op2@V?$allocator@U?$_List_node@PEAVEarlyUpdate@gde@@PEAX@std@@@std@@@std@@QEAA@AEAV?$allocator@U?$_List_node@PEAVEarlyUpdate@gde@@PEAX@std@@@1@AEBQEAVEarlyUpdate@gde@@@Z
	??$?0AEBQEAVInputPlayer@gde@@@?$_List_node_emplace_op2@V?$allocator@U?$_List_node@PEAVInputPlayer@gde@@PEAX@std@@@std@@@std@@QEAA@AEAV?$allocator@U?$_List_node@PEAVInputPlayer@gde@@PEAX@std@@@1@AEBQEAVInputPlayer@gde@@@Z
	??$?0AEBQEAVLateUpdate@gde@@@?$_List_node_emplace_op2@V?$allocator@U?$_List_node@PEAVLateUpdate@gde@@PEAX@std@@@std@@@std@@QEAA@AEAV?$allocator@U?$_List_node@PEAVLateUpdate@gde@@PEAX@std@@@1@AEBQEAVLateUpdate@gde@@@Z
	??$?0AEBQEAVLightObject@gde@@@?$_List_node_emplace_op2@V?$allocator@U?$_List_node@PEAVLightObject@gde@@PEAX@std@@@std@@@std@@QEAA@AEAV?$allocator@U?$_List_node@PEAVLightObject@gde@@PEAX@std@@@1@AEBQEAVLightObject@gde@@@Z
	??$?0AEBQEAVObject@gde@@@?$_List_node_emplace_op2@V?$allocator@U?$_List_node@PEAVObject@gde@@PEAX@std@@@std@@@std@@QEAA@AEAV?$allocator@U?$_List_node@PEAVObject@gde@@PEAX@std@@@1@AEBQEAVObject@gde@@@Z
	??$?0AEBQEAVUpdate@gde@@@?$_List_node_emplace_op2@V?$allocator@U?$_List_node@PEAVUpdate@gde@@PEAX@std@@@std@@@std@@QEAA@AEAV?$allocator@U?$_List_node@PEAVUpdate@gde@@PEAX@std@@@1@AEBQEAVUpdate@gde@@@Z
	??$?0AEBQEBDAEAUMaterialOverride@rendering@gde@@$0A@@?$pair@QEBDUMaterialOverride@rendering@gde@@@std@@QEAA@AEBQEBDAEAUMaterialOverride@rendering@gde@@@Z
	??$?0AEBQEBDAEAUMaterialOverride@rendering@gde@@@?$_List_node_emplace_op2@V?$allocator@U?$_List_node@U?$pair@QEBDUMaterialOverride@rendering@gde@@@std@@PEAX@std@@@std@@@std@@QEAA@AEAV?$allocator@U?$_List_node@U?$pair@QEBDUMaterialOverride@rendering@gde@@@std@@PEAX@std@@@1@AEBQEBDAEAUMaterialOverride@rendering@gde@@@Z
	??$?0AEBUpiecewise_construct_t@std@@V?$tuple@AEBV?$basic_string@DU?$char_traits@D@std@@V?$allocator@D@2@@std@@@1@V?$tuple@$$V@1@@?$_List_node_emplace_op2@V?$allocator@U?$_List_node@U?$pair@$$CBV?$basic_string@DU?$char_traits@D@std@@V?$allocator@D@2@@std@@V?$list@PEAVActionImplementation_base@input@gde@@V?$allocator@PEAVActionImplementation_base@input@gde@@@std@@@2@@std@@PEAX@std@@@std@@@std@@QEAA@AEAV?$allocator@U?$_List_node@U?$pair@$$CBV?$basic_string@DU?$char_traits@D@std@@V?$allocator@D@2@@std@@V?$list@PEAVActionImplementation_base@input@gde@@V?$allocator@PEAVActionImplementation_base@input@gde@@@std@@@2@@std@@PEAX@std@@@1@AEBUpiecewise_construct_t@1@$$QEAV?$tuple@AEBV?$basic_string@DU?$char_traits@D@std@@V?$allocator@D@2@@std@@@1@$$QEAV?$tuple@$$V@1@@Z
	??$?0AEBV?$allocator@PEAVDrawCall@rendering@gde@@@std@@$$V@?$_Compressed_pair@V?$allocator@PEAVDrawCall@rendering@gde@@@std@@V?$_Vector_val@U?$_Simple_types@PEAVDrawCall@rendering@gde@@@std@@@2@$00@std@@QEAA@U_One_then_variadic_args_t@1@AEBV?$allocator@PEAVDrawCall@rendering@gde@@@1@@Z
	??$?0AEBV?$allocator@U?$pair@$$CBV?$basic_string@DU?$char_traits@D@std@@V?$allocator@D@2@@std@@V?$list@PEAVActionImplementation_base@input@gde@@V?$allocator@PEAVActionImplementation_base@input@gde@@@std@@@2@@std@@@std@@$$V@?$_Compressed_pair@V?$allocator@U?$_List_node@U?$pair@$$CBV?$basic_string@DU?$char_traits@D@std@@V?$allocator@D@2@@std@@V?$list@PEAVActionImplementation_base@input@gde@@V?$allocator@PEAVActionImplementation_base@input@gde@@@std@@@2@@std@@PEAX@std@@@std@@V?$_List_val@U?$_List_simple_types@U?$pair@$$CBV?$basic_string@DU?$char_traits@D@std@@V?$allocator@D@2@@std@@V?$list@PEAVActionImplementation_base@input@gde@@V?$allocator@PEAVActionImplementation_base@input@gde@@@std@@@2@@std@@@std@@@2@$00@std@@QEAA@U_One_then_variadic_args_t@1@AEBV?$allocator@U?$pair@$$CBV?$basic_string@DU?$char_traits@D@std@@V?$allocator@D@2@@std@@V?$list@PEAVActionImplementation_base@input@gde@@V?$allocator@PEAVActionImplementation_base@input@gde@@@std@@@2@@std@@@1@@Z
	??$?0AEBV?$allocator@U?$pair@$$CBV?$basic_string@DU?$char_traits@D@std@@V?$allocator@D@2@@std@@V?$list@PEAVActionImplementation_base@input@gde@@V?$allocator@PEAVActionImplementation_base@input@gde@@@std@@@2@@std@@@std@@$$V@?$_Compressed_pair@V?$allocator@V?$_List_unchecked_iterator@V?$_List_val@U?$_List_simple_types@U?$pair@$$CBV?$basic_string@DU?$char_traits@D@std@@V?$allocator@D@2@@std@@V?$list@PEAVActionImplementation_base@input@gde@@V?$allocator@PEAVActionImplementation_base@input@gde@@@std@@@2@@std@@@std@@@std@@@std@@@std@@V?$_Vector_val@U?$_Simple_types@V?$_List_unchecked_iterator@V?$_List_val@U?$_List_simple_types@U?$pair@$$CBV?$basic_string@DU?$char_traits@D@std@@V?$allocator@D@2@@std@@V?$list@PEAVActionImplementation_base@input@gde@@V?$allocator@PEAVActionImplementation_base@input@gde@@@std@@@2@@std@@@std@@@std@@@std@@@std@@@2@$00@std@@QEAA@U_One_then_variadic_args_t@1@AEBV?$allocator@U?$pair@$$CBV?$basic_string@DU?$char_traits@D@std@@V?$allocator@D@2@@std@@V?$list@PEAVActionImplementation_base@input@gde@@V?$allocator@PEAVActionImplementation_base@input@gde@@@std@@@2@@std@@@1@@Z
	??$?0AEBV?$allocator@U?$pair@$$CBV?$basic_string@DU?$char_traits@D@std@@V?$allocator@D@2@@std@@V?$list@PEAVActionImplementation_base@input@gde@@V?$allocator@PEAVActionImplementation_base@input@gde@@@std@@@2@@std@@@std@@$0A@@?$_Hash_vec@V?$allocator@V?$_List_unchecked_iterator@V?$_List_val@U?$_List_simple_types@U?$pair@$$CBV?$basic_string@DU?$char_traits@D@std@@V?$allocator@D@2@@std@@V?$list@PEAVActionImplementation_base@input@gde@@V?$allocator@PEAVActionImplementation_base@input@gde@@@std@@@2@@std@@@std@@@std@@@std@@@std@@@std@@QEAA@AEBV?$allocator@U?$pair@$$CBV?$basic_string@DU?$char_traits@D@std@@V?$allocator@D@2@@std@@V?$list@PEAVActionImplementation_base@input@gde@@V?$allocator@PEAVActionImplementation_base@input@gde@@@std@@@2@@std@@@1@@Z
	??$?0AEBV?$basic_string@DU?$char_traits@D@std@@V?$allocator@D@2@@std@@$$Z$$V@?$pair@$$CBV?$basic_string@DU?$char_traits@D@std@@V?$allocator@D@2@@std@@V?$list@PEAVActionImplementation_base@input@gde@@V?$allocator@PEAVActionImplementation_base@input@gde@@@std@@@2@@std@@QEAA@Upiecewise_construct_t@1@V?$tuple@AEBV?$basic_string@DU?$char_traits@D@std@@V?$allocator@D@2@@std@@@1@V?$tuple@$$V@1@@Z
	??$?0AEBV?$basic_string@DU?$char_traits@D@std@@V?$allocator@D@2@@std@@$0A@@?$tuple@AEBV?$basic_string@DU?$char_traits@D@std@@V?$allocator@D@2@@std@@@std@@QEAA@AEBV?$basic_string@DU?$char_traits@D@std@@V?$allocator@D@2@@1@@Z
	??$?0AEBV?$basic_string@DU?$char_traits@D@std@@V?$allocator@D@2@@std@@@?$_Tuple_val@AEBV?$basic_string@DU?$char_traits@D@std@@V?$allocator@D@2@@std@@@std@@QEAA@AEBV?$basic_string@DU?$char_traits@D@std@@V?$allocator@D@2@@1@@Z
	??$?0AEBV?$basic_string@DU?$char_traits@D@std@@V?$allocator@D@2@@std@@V?$list@PEAVActionImplementation_base@input@gde@@V?$allocator@PEAVActionImplementation_base@input@gde@@@std@@@1@$0A@@?$pair@$$CBV?$basic_string@DU?$char_traits@D@std@@V?$allocator@D@2@@std@@V?$list@PEAVActionImplementation_base@input@gde@@V?$allocator@PEAVActionImplementation_base@input@gde@@@std@@@2@@std@@QEAA@AEBV?$basic_string@DU?$char_traits@D@std@@V?$allocator@D@2@@1@$$QEAV?$list@PEAVActionImplementation_base@input@gde@@V?$allocator@PEAVActionImplementation_base@input@gde@@@std@@@1@@Z
	??$?0AEBV?$basic_string@DU?$char_traits@D@std@@V?$allocator@D@2@@std@@V?$list@PEAVActionImplementation_base@input@gde@@V?$allocator@PEAVActionImplementation_base@input@gde@@@std@@@1@@?$_List_node_emplace_op2@V?$allocator@U?$_List_node@U?$pair@$$CBV?$basic_string@DU?$char_traits@D@std@@V?$allocator@D@2@@std@@V?$list@PEAVActionImplementation_base@input@gde@@V?$allocator@PEAVActionImplementation_base@input@gde@@@std@@@2@@std@@PEAX@std@@@std@@@std@@QEAA@AEAV?$allocator@U?$_List_node@U?$pair@$$CBV?$basic_string@DU?$char_traits@D@std@@V?$allocator@D@2@@std@@V?$list@PEAVActionImplementation_base@input@gde@@V?$allocator@PEAVActionImplementation_base@input@gde@@@std@@@2@@std@@PEAX@std@@@1@AEBV?$basic_string@DU?$char_traits@D@std@@V?$allocator@D@2@@1@$$QEAV?$list@PEAVActionImplementation_base@input@gde@@V?$allocator@PEAVActionImplementation_base@input@gde@@@std@@@1@@Z
	??$?0D@?$allocator@U_Container_proxy@std@@@std@@QEAA@AEBV?$allocator@D@1@@Z
	??$?0HH@?$vec@$01M$0A@@glm@@QEAA@HH@Z
	??$?0HHHH@?$vec@$03M$0A@@glm@@QEAA@HHHH@Z
	??$?0M@?$_Compressed_pair@U?$equal_to@V?$basic_string@DU?$char_traits@D@std@@V?$allocator@D@2@@std@@@std@@M$00@std@@QEAA@U_Zero_then_variadic_args_t@1@$$QEAM@Z
	??$?0PEAH@?$allocator@U_Container_proxy@std@@@std@@QEAA@AEBV?$allocator@PEAH@1@@Z
	??$?0PEAM@?$allocator@U_Container_proxy@std@@@std@@QEAA@AEBV?$allocator@PEAM@1@@Z
	??$?0PEAU?$_List_node@U?$pair@$$CBV?$basic_string@DU?$char_traits@D@std@@V?$allocator@D@2@@std@@V?$list@PEAVActionImplementation_base@input@gde@@V?$allocator@PEAVActionImplementation_base@input@gde@@@std@@@2@@std@@PEAX@std@@_N$0A@@?$pair@PEAU?$_List_node@U?$pair@$$CBV?$basic_string@DU?$char_traits@D@std@@V?$allocator@D@2@@std@@V?$list@PEAVActionImplementation_base@input@gde@@V?$allocator@PEAVActionImplementation_base@input@gde@@@std@@@2@@std@@PEAX@std@@_N@std@@QEAA@$$QEAPEAU?$_List_node@U?$pair@$$CBV?$basic_string@DU?$char_traits@D@std@@V?$allocator@D@2@@std@@V?$list@PEAVActionImplementation_base@input@gde@@V?$allocator@PEAVActionImplementation_base@input@gde@@@std@@@2@@std@@PEAX@1@$$QEA_N@Z
	??$?0PEAVDrawCall@rendering@gde@@@?$allocator@U_Container_proxy@std@@@std@@QEAA@AEBV?$allocator@PEAVDrawCall@rendering@gde@@@1@@Z
	??$?0U?$_List_node@PEAVActionImplementation_base@input@gde@@PEAX@std@@@?$allocator@U_Container_proxy@std@@@std@@QEAA@AEBV?$allocator@U?$_List_node@PEAVActionImplementation_base@input@gde@@PEAX@std@@@1@@Z
	??$?0U?$_List_node@PEAVEarlyUpdate@gde@@PEAX@std@@@?$allocator@U_Container_proxy@std@@@std@@QEAA@AEBV?$allocator@U?$_List_node@PEAVEarlyUpdate@gde@@PEAX@std@@@1@@Z
	??$?0U?$_List_node@PEAVHandler@gde@@PEAX@std@@@?$allocator@U_Container_proxy@std@@@std@@QEAA@AEBV?$allocator@U?$_List_node@PEAVHandler@gde@@PEAX@std@@@1@@Z
	??$?0U?$_List_node@PEAVInputPlayer@gde@@PEAX@std@@@?$allocator@U_Container_proxy@std@@@std@@QEAA@AEBV?$allocator@U?$_List_node@PEAVInputPlayer@gde@@PEAX@std@@@1@@Z
	??$?0U?$_List_node@PEAVLateUpdate@gde@@PEAX@std@@@?$allocator@U_Container_proxy@std@@@std@@QEAA@AEBV?$allocator@U?$_List_node@PEAVLateUpdate@gde@@PEAX@std@@@1@@Z
	??$?0U?$_List_node@PEAVLightObject@gde@@PEAX@std@@@?$allocator@U_Container_proxy@std@@@std@@QEAA@AEBV?$allocator@U?$_List_node@PEAVLightObject@gde@@PEAX@std@@@1@@Z
	??$?0U?$_List_node@PEAVObject@gde@@PEAX@std@@@?$allocator@U_Container_proxy@std@@@std@@QEAA@AEBV?$allocator@U?$_List_node@PEAVObject@gde@@PEAX@std@@@1@@Z
	??$?0U?$_List_node@PEAVUpdate@gde@@PEAX@std@@@?$allocator@U_Container_proxy@std@@@std@@QEAA@AEBV?$allocator@U?$_List_node@PEAVUpdate@gde@@PEAX@std@@@1@@Z
	??$?0U?$_List_node@U?$pair@$$CBV?$basic_string@DU?$char_traits@D@std@@V?$allocator@D@2@@std@@V?$list@PEAVActionImplementation_base@input@gde@@V?$allocator@PEAVActionImplementation_base@input@gde@@@std@@@2@@std@@PEAX@std@@@?$allocator@U_Container_proxy@std@@@std@@QEAA@AEBV?$allocator@U?$_List_node@U?$pair@$$CBV?$basic_string@DU?$char_traits@D@std@@V?$allocator@D@2@@std@@V?$list@PEAVActionImplementation_base@input@gde@@V?$allocator@PEAVActionImplementation_base@input@gde@@@std@@@2@@std@@PEAX@std@@@1@@Z
	??$?0U?$pair@$$CBV?$basic_string@DU?$char_traits@D@std@@V?$allocator@D@2@@std@@V?$list@PEAVActionImplementation_base@input@gde@@V?$allocator@PEAVActionImplementation_base@input@gde@@@std@@@2@@std@@@?$allocator@U?$_List_node@U?$pair@$$CBV?$basic_string@DU?$char_traits@D@std@@V?$allocator@D@2@@std@@V?$list@PEAVActionImplementation_base@input@gde@@V?$allocator@PEAVActionImplementation_base@input@gde@@@std@@@2@@std@@PEAX@std@@@std@@QEAA@AEBV?$allocator@U?$pair@$$CBV?$basic_string@DU?$char_traits@D@std@@V?$allocator@D@2@@std@@V?$list@PEAVActionImplementation_base@input@gde@@V?$allocator@PEAVActionImplementation_base@input@gde@@@std@@@2@@std@@@1@@Z
	??$?0U?$pair@$$CBV?$basic_string@DU?$char_traits@D@std@@V?$allocator@D@2@@std@@V?$list@PEAVActionImplementation_base@input@gde@@V?$allocator@PEAVActionImplementation_base@input@gde@@@std@@@2@@std@@@?$allocator@V?$_List_unchecked_iterator@V?$_List_val@U?$_List_simple_types@U?$pair@$$CBV?$basic_string@DU?$char_traits@D@std@@V?$allocator@D@2@@std@@V?$list@PEAVActionImplementation_base@input@gde@@V?$allocator@PEAVActionImplementation_base@input@gde@@@std@@@2@@std@@@std@@@std@@@std@@@std@@QEAA@AEBV?$allocator@U?$pair@$$CBV?$basic_string@DU?$char_traits@D@std@@V?$allocator@D@2@@std@@V?$list@PEAVActionImplementation_base@input@gde@@V?$allocator@PEAVActionImplementation_base@input@gde@@@std@@@2@@std@@@1@@Z
	??$?0U_Exact_args_t@std@@$0A@@?$tuple@$$V@std@@QEAA@U_Exact_args_t@1@@Z
	??$?0U_Exact_args_t@std@@AEBV?$basic_string@DU?$char_traits@D@std@@V?$allocator@D@2@@1@$$V$0A@@?$tuple@AEBV?$basic_string@DU?$char_traits@D@std@@V?$allocator@D@2@@std@@@std@@QEAA@U_Exact_args_t@1@AEBV?$basic_string@DU?$char_traits@D@std@@V?$allocator@D@2@@1@@Z
	??$?0U_Zero_then_variadic_args_t@std@@M@?$_Compressed_pair@U?$hash@V?$basic_string@DU?$char_traits@D@std@@V?$allocator@D@2@@std@@@std@@V?$_Compressed_pair@U?$equal_to@V?$basic_string@DU?$char_traits@D@std@@V?$allocator@D@2@@std@@@std@@M$00@2@$00@std@@QEAA@U_Zero_then_variadic_args_t@1@$$QEAU21@$$QEAM@Z
	??$?0V?$_List_iterator@V?$_List_val@U?$_List_simple_types@U?$pair@$$CBV?$basic_string@DU?$char_traits@D@std@@V?$allocator@D@2@@std@@V?$list@PEAVActionImplementation_base@input@gde@@V?$allocator@PEAVActionImplementation_base@input@gde@@@std@@@2@@std@@@std@@@std@@@std@@_N$0A@@?$pair@V?$_List_iterator@V?$_List_val@U?$_List_simple_types@U?$pair@$$CBV?$basic_string@DU?$char_traits@D@std@@V?$allocator@D@2@@std@@V?$list@PEAVActionImplementation_base@input@gde@@V?$allocator@PEAVActionImplementation_base@input@gde@@@std@@@2@@std@@@std@@@std@@@std@@_N@std@@QEAA@$$QEAV?$_List_iterator@V?$_List_val@U?$_List_simple_types@U?$pair@$$CBV?$basic_string@DU?$char_traits@D@std@@V?$allocator@D@2@@std@@V?$list@PEAVActionImplementation_base@input@gde@@V?$allocator@PEAVActionImplementation_base@input@gde@@@std@@@2@@std@@@std@@@std@@@1@$$QEA_N@Z
	??$?0V?$_List_iterator@V?$_List_val@U?$_List_simple_types@U?$pair@QEBDUMaterialOverride@rendering@gde@@@std@@@std@@@std@@@std@@_N$0A@@?$pair@V?$_List_iterator@V?$_List_val@U?$_List_simple_types@U?$pair@QEBDUMaterialOverride@rendering@gde@@@std@@@std@@@std@@@std@@_N@std@@QEAA@$$QEAV?$_List_iterator@V?$_List_val@U?$_List_simple_types@U?$pair@QEBDUMaterialOverride@rendering@gde@@@std@@@std@@@std@@@1@$$QEA_N@Z
	??$?0V?$_List_unchecked_iterator@V?$_List_val@U?$_List_simple_types@U?$pair@$$CBV?$basic_string@DU?$char_traits@D@std@@V?$allocator@D@2@@std@@V?$list@PEAVActionImplementation_base@input@gde@@V?$allocator@PEAVActionImplementation_base@input@gde@@@std@@@2@@std@@@std@@@std@@@std@@@?$allocator@U_Container_proxy@std@@@std@@QEAA@AEBV?$allocator@V?$_List_unchecked_iterator@V?$_List_val@U?$_List_simple_types@U?$pair@$$CBV?$basic_string@DU?$char_traits@D@std@@V?$allocator@D@2@@std@@V?$list@PEAVActionImplementation_base@input@gde@@V?$allocator@PEAVActionImplementation_base@input@gde@@@std@@@2@@std@@@std@@@std@@@std@@@1@@Z
	??$?0V?$allocator@D@std@@$$V@?$_Compressed_pair@V?$allocator@D@std@@V?$_String_val@U?$_Simple_types@D@std@@@2@$00@std@@QEAA@U_One_then_variadic_args_t@1@$$QEAV?$allocator@D@1@@Z
	??$?0V?$allocator@PEAVDrawCall@rendering@gde@@@std@@$$V@?$_Compressed_pair@V?$allocator@PEAVDrawCall@rendering@gde@@@std@@V?$_Vector_val@U?$_Simple_types@PEAVDrawCall@rendering@gde@@@std@@@2@$00@std@@QEAA@U_One_then_variadic_args_t@1@$$QEAV?$allocator@PEAVDrawCall@rendering@gde@@@1@@Z
	??$?0V?$allocator@U?$_List_node@PEAVActionImplementation_base@input@gde@@PEAX@std@@@std@@$$V@?$_Compressed_pair@V?$allocator@U?$_List_node@PEAVActionImplementation_base@input@gde@@PEAX@std@@@std@@V?$_List_val@U?$_List_simple_types@PEAVActionImplementation_base@input@gde@@@std@@@2@$00@std@@QEAA@U_One_then_variadic_args_t@1@$$QEAV?$allocator@U?$_List_node@PEAVActionImplementation_base@input@gde@@PEAX@std@@@1@@Z
	??$?0V?$tuple@AEBV?$basic_string@DU?$char_traits@D@std@@V?$allocator@D@2@@std@@@std@@V?$tuple@$$V@1@$0A@$$Z$S@?$pair@$$CBV?$basic_string@DU?$char_traits@D@std@@V?$allocator@D@2@@std@@V?$list@PEAVActionImplementation_base@input@gde@@V?$allocator@PEAVActionImplementation_base@input@gde@@@std@@@2@@std@@QEAA@AEAV?$tuple@AEBV?$basic_string@DU?$char_traits@D@std@@V?$allocator@D@2@@std@@@1@AEAV?$tuple@$$V@1@U?$integer_sequence@_K$0A@@1@U?$integer_sequence@_K$S@1@@Z
	??$?8DU?$char_traits@D@std@@V?$allocator@D@1@@std@@YA_NAEBV?$basic_string@DU?$char_traits@D@std@@V?$allocator@D@2@@0@0@Z
	??$?9DU?$char_traits@D@std@@V?$allocator@D@1@@std@@YA_NAEBV?$basic_string@DU?$char_traits@D@std@@V?$allocator@D@2@@0@0@Z
	??$?RPEBD@?$_Uhash_compare@PEBDU?$hash@PEBD@std@@U?$equal_to@PEBD@2@@std@@QEBA_KAEBQEBD@Z
	??$?RPEBDPEBD@?$_Uhash_compare@PEBDU?$hash@PEBD@std@@U?$equal_to@PEBD@2@@std@@QEBA_NAEBQEBD0@Z
	??$?RV?$basic_string@DU?$char_traits@D@std@@V?$allocator@D@2@@std@@@?$_Uhash_compare@V?$basic_string@DU?$char_traits@D@std@@V?$allocator@D@2@@std@@U?$hash@V?$basic_string@DU?$char_traits@D@std@@V?$allocator@D@2@@std@@@2@U?$equal_to@V?$basic_string@DU?$char_traits@D@std@@V?$allocator@D@2@@std@@@2@@std@@QEBA_KAEBV?$basic_string@DU?$char_traits@D@std@@V?$allocator@D@2@@1@@Z
	??$?RV?$basic_string@DU?$char_traits@D@std@@V?$allocator@D@2@@std@@V01@@?$_Uhash_compare@V?$basic_string@DU?$char_traits@D@std@@V?$allocator@D@2@@std@@U?$hash@V?$basic_string@DU?$char_traits@D@std@@V?$allocator@D@2@@std@@@2@U?$equal_to@V?$basic_string@DU?$char_traits@D@std@@V?$allocator@D@2@@std@@@2@@std@@QEBA_NAEBV?$basic_string@DU?$char_traits@D@std@@V?$allocator@D@2@@1@0@Z
	??$SetOverride@M@Shader@rendering@gde@@QEAAXPEBDM@Z
	??$SetOverride@U?$vec@$03M$0A@@glm@@@Shader@rendering@gde@@QEAAXPEBDU?$vec@$03M$0A@@glm@@@Z
	??$_Adl_verify_range@PEAV?$_List_unchecked_iterator@V?$_List_val@U?$_List_simple_types@U?$pair@$$CBV?$basic_string@DU?$char_traits@D@std@@V?$allocator@D@2@@std@@V?$list@PEAVActionImplementation_base@input@gde@@V?$allocator@PEAVActionImplementation_base@input@gde@@@std@@@2@@std@@@std@@@std@@@std@@PEAV12@@std@@YAXAEBQEAV?$_List_unchecked_iterator@V?$_List_val@U?$_List_simple_types@U?$pair@$$CBV?$basic_string@DU?$char_traits@D@std@@V?$allocator@D@2@@std@@V?$list@PEAVActionImplementation_base@input@gde@@V?$allocator@PEAVActionImplementation_base@input@gde@@@std@@@2@@std@@@std@@@std@@@0@0@Z
	??$_Adl_verify_range@PEAV?$_List_unchecked_iterator@V?$_List_val@U?$_List_simple_types@U?$pair@QEBDUMaterialOverride@rendering@gde@@@std@@@std@@@std@@@std@@PEAV12@@std@@YAXAEBQEAV?$_List_unchecked_iterator@V?$_List_val@U?$_List_simple_types@U?$pair@QEBDUMaterialOverride@rendering@gde@@@std@@@std@@@std@@@0@0@Z
	??$_Alloc_proxy@V?$allocator@U_Container_proxy@std@@@std@@@_Container_base12@std@@QEAAX$$QEAV?$allocator@U_Container_proxy@std@@@1@@Z
	??$_Allocate@$0BA@U_Default_allocate_traits@std@@@std@@YAPEAX_K@Z
	??$_Allocate_at_least_helper@V?$allocator@D@std@@@std@@YAPEADAEAV?$allocator@D@0@AEA_K@Z
	??$_Allocate_at_least_helper@V?$allocator@PEAVDrawCall@rendering@gde@@@std@@@std@@YAPEAPEAVDrawCall@rendering@gde@@AEAV?$allocator@PEAVDrawCall@rendering@gde@@@0@AEA_K@Z
	??$_Allocate_at_least_helper@V?$allocator@UMaterialTexture@rendering@gde@@@std@@@std@@YAPEAUMaterialTexture@rendering@gde@@AEAV?$allocator@UMaterialTexture@rendering@gde@@@0@AEA_K@Z
	??$_Allocate_for_capacity@$0A@@?$basic_string@DU?$char_traits@D@std@@V?$allocator@D@2@@std@@CAPEADAEAV?$allocator@D@1@AEA_K@Z
	??$_Allocate_manually_vector_aligned@U_Default_allocate_traits@std@@@std@@YAPEAX_K@Z
	??$_Append_range_unchecked@V?$_List_unchecked_const_iterator@V?$_List_val@U?$_List_simple_types@PEAVActionImplementation_base@input@gde@@@std@@@std@@U_Iterator_base0@2@@std@@V12@@?$_List_node_insert_op2@V?$allocator@U?$_List_node@PEAVActionImplementation_base@input@gde@@PEAX@std@@@std@@@std@@QEAAXV?$_List_unchecked_const_iterator@V?$_List_val@U?$_List_simple_types@PEAVActionImplementation_base@input@gde@@@std@@@std@@U_Iterator_base0@2@@1@V21@@Z
	??$_Attach_head@U?$_List_simple_types@PEAVActionImplementation_base@input@gde@@@std@@@?$_List_node_insert_op2@V?$allocator@U?$_List_node@PEAVActionImplementation_base@input@gde@@PEAX@std@@@std@@@std@@QEAAXAEAV?$_List_val@U?$_List_simple_types@PEAVActionImplementation_base@input@gde@@@std@@@1@@Z
	??$_Construct@$00PEBD@?$basic_string@DU?$char_traits@D@std@@V?$allocator@D@2@@std@@AEAAXQEBD_K@Z
	??$_Construct@$01PEBD@?$basic_string@DU?$char_traits@D@std@@V?$allocator@D@2@@std@@AEAAXQEBD_K@Z
	??$_Construct_in_place@PEADAEAPEAD@std@@YAXAEAPEAD0@Z
	??$_Construct_in_place@PEADAEBQEAD@std@@YAXAEAPEADAEBQEAD@Z
	??$_Construct_in_place@PEAU?$_List_node@PEAVActionImplementation_base@input@gde@@PEAX@std@@AEAPEAU12@@std@@YAXAEAPEAU?$_List_node@PEAVActionImplementation_base@input@gde@@PEAX@0@0@Z
	??$_Construct_in_place@PEAU?$_List_node@PEAVActionImplementation_base@input@gde@@PEAX@std@@AEBQEAU12@@std@@YAXAEAPEAU?$_List_node@PEAVActionImplementation_base@input@gde@@PEAX@0@AEBQEAU10@@Z
	??$_Construct_in_place@PEAU?$_List_node@PEAVActionImplementation_base@input@gde@@PEAX@std@@PEAU12@@std@@YAXAEAPEAU?$_List_node@PEAVActionImplementation_base@input@gde@@PEAX@0@$$QEAPEAU10@@Z
	??$_Construct_in_place@PEAU?$_List_node@PEAVEarlyUpdate@gde@@PEAX@std@@AEAPEAU12@@std@@YAXAEAPEAU?$_List_node@PEAVEarlyUpdate@gde@@PEAX@0@0@Z
	??$_Construct_in_place@PEAU?$_List_node@PEAVEarlyUpdate@gde@@PEAX@std@@AEBQEAU12@@std@@YAXAEAPEAU?$_List_node@PEAVEarlyUpdate@gde@@PEAX@0@AEBQEAU10@@Z
	??$_Construct_in_place@PEAU?$_List_node@PEAVHandler@gde@@PEAX@std@@AEAPEAU12@@std@@YAXAEAPEAU?$_List_node@PEAVHandler@gde@@PEAX@0@0@Z
	??$_Construct_in_place@PEAU?$_List_node@PEAVInputPlayer@gde@@PEAX@std@@AEAPEAU12@@std@@YAXAEAPEAU?$_List_node@PEAVInputPlayer@gde@@PEAX@0@0@Z
	??$_Construct_in_place@PEAU?$_List_node@PEAVInputPlayer@gde@@PEAX@std@@AEBQEAU12@@std@@YAXAEAPEAU?$_List_node@PEAVInputPlayer@gde@@PEAX@0@AEBQEAU10@@Z
	??$_Construct_in_place@PEAU?$_List_node@PEAVLateUpdate@gde@@PEAX@std@@AEAPEAU12@@std@@YAXAEAPEAU?$_List_node@PEAVLateUpdate@gde@@PEAX@0@0@Z
	??$_Construct_in_place@PEAU?$_List_node@PEAVLateUpdate@gde@@PEAX@std@@AEBQEAU12@@std@@YAXAEAPEAU?$_List_node@PEAVLateUpdate@gde@@PEAX@0@AEBQEAU10@@Z
	??$_Construct_in_place@PEAU?$_List_node@PEAVLightObject@gde@@PEAX@std@@AEAPEAU12@@std@@YAXAEAPEAU?$_List_node@PEAVLightObject@gde@@PEAX@0@0@Z
	??$_Construct_in_place@PEAU?$_List_node@PEAVLightObject@gde@@PEAX@std@@AEBQEAU12@@std@@YAXAEAPEAU?$_List_node@PEAVLightObject@gde@@PEAX@0@AEBQEAU10@@Z
	??$_Construct_in_place@PEAU?$_List_node@PEAVObject@gde@@PEAX@std@@AEAPEAU12@@std@@YAXAEAPEAU?$_List_node@PEAVObject@gde@@PEAX@0@0@Z
	??$_Construct_in_place@PEAU?$_List_node@PEAVObject@gde@@PEAX@std@@AEBQEAU12@@std@@YAXAEAPEAU?$_List_node@PEAVObject@gde@@PEAX@0@AEBQEAU10@@Z
	??$_Construct_in_place@PEAU?$_List_node@PEAVUpdate@gde@@PEAX@std@@AEAPEAU12@@std@@YAXAEAPEAU?$_List_node@PEAVUpdate@gde@@PEAX@0@0@Z
	??$_Construct_in_place@PEAU?$_List_node@PEAVUpdate@gde@@PEAX@std@@AEBQEAU12@@std@@YAXAEAPEAU?$_List_node@PEAVUpdate@gde@@PEAX@0@AEBQEAU10@@Z
	??$_Construct_in_place@PEAU?$_List_node@U?$pair@$$CBV?$basic_string@DU?$char_traits@D@std@@V?$allocator@D@2@@std@@V?$list@PEAVActionImplementation_base@input@gde@@V?$allocator@PEAVActionImplementation_base@input@gde@@@std@@@2@@std@@PEAX@std@@AEAPEAU12@@std@@YAXAEAPEAU?$_List_node@U?$pair@$$CBV?$basic_string@DU?$char_traits@D@std@@V?$allocator@D@2@@std@@V?$list@PEAVActionImplementation_base@input@gde@@V?$allocator@PEAVActionImplementation_base@input@gde@@@std@@@2@@std@@PEAX@0@0@Z
	??$_Construct_in_place@PEAU?$_List_node@U?$pair@$$CBV?$basic_string@DU?$char_traits@D@std@@V?$allocator@D@2@@std@@V?$list@PEAVActionImplementation_base@input@gde@@V?$allocator@PEAVActionImplementation_base@input@gde@@@std@@@2@@std@@PEAX@std@@AEBQEAU12@@std@@YAXAEAPEAU?$_List_node@U?$pair@$$CBV?$basic_string@DU?$char_traits@D@std@@V?$allocator@D@2@@std@@V?$list@PEAVActionImplementation_base@input@gde@@V?$allocator@PEAVActionImplementation_base@input@gde@@@std@@@2@@std@@PEAX@0@AEBQEAU10@@Z
	??$_Construct_in_place@PEAU?$_List_node@U?$pair@QEBDUMaterialOverride@rendering@gde@@@std@@PEAX@std@@AEBQEAU12@@std@@YAXAEAPEAU?$_List_node@U?$pair@QEBDUMaterialOverride@rendering@gde@@@std@@PEAX@0@AEBQEAU10@@Z
	??$_Construct_in_place@UMaterialTexture@rendering@gde@@AEBU123@@std@@YAXAEAUMaterialTexture@rendering@gde@@AEBU123@@Z
	??$_Construct_in_place@U_Container_proxy@std@@PEAU_Container_base12@2@@std@@YAXAEAU_Container_proxy@0@$$QEAPEAU_Container_base12@0@@Z
	??$_Construct_in_place@V?$_List_unchecked_iterator@V?$_List_val@U?$_List_simple_types@U?$pair@$$CBV?$basic_string@DU?$char_traits@D@std@@V?$allocator@D@2@@std@@V?$list@PEAVActionImplementation_base@input@gde@@V?$allocator@PEAVActionImplementation_base@input@gde@@@std@@@2@@std@@@std@@@std@@@std@@AEBV12@@std@@YAXAEAV?$_List_unchecked_iterator@V?$_List_val@U?$_List_simple_types@U?$pair@$$CBV?$basic_string@DU?$char_traits@D@std@@V?$allocator@D@2@@std@@V?$list@PEAVActionImplementation_base@input@gde@@V?$allocator@PEAVActionImplementation_base@input@gde@@@std@@@2@@std@@@std@@@std@@@0@AEBV10@@Z
	??$_Construct_in_place@V?$_List_unchecked_iterator@V?$_List_val@U?$_List_simple_types@U?$pair@QEBDUMaterialOverride@rendering@gde@@@std@@@std@@@std@@@std@@AEBV12@@std@@YAXAEAV?$_List_unchecked_iterator@V?$_List_val@U?$_List_simple_types@U?$pair@QEBDUMaterialOverride@rendering@gde@@@std@@@std@@@std@@@0@AEBV10@@Z
	??$_Construct_n@AEBQEAPEAVDrawCall@rendering@gde@@AEBQEAPEAV123@@?$vector@PEAVDrawCall@rendering@gde@@V?$allocator@PEAVDrawCall@rendering@gde@@@std@@@std@@AEAAX_KAEBQEAPEAVDrawCall@rendering@gde@@1@Z
	??$_Construct_n@PEBQEAVDrawCall@rendering@gde@@PEBQEAV123@@?$vector@PEAVDrawCall@rendering@gde@@V?$allocator@PEAVDrawCall@rendering@gde@@@std@@@std@@AEAAX_K$$QEAPEBQEAVDrawCall@rendering@gde@@1@Z
	??$_Construct_range_unchecked@V?$_List_unchecked_const_iterator@V?$_List_val@U?$_List_simple_types@PEAVActionImplementation_base@input@gde@@@std@@@std@@U_Iterator_base0@2@@std@@V12@@?$list@PEAVActionImplementation_base@input@gde@@V?$allocator@PEAVActionImplementation_base@input@gde@@@std@@@std@@AEAAXV?$_List_unchecked_const_iterator@V?$_List_val@U?$_List_simple_types@PEAVActionImplementation_base@input@gde@@@std@@@std@@U_Iterator_base0@2@@1@V21@@Z
	??$_Convert_size@_K_K@std@@YA_K_K@Z
	??$_Copy_memmove@PEAPEAVDrawCall@rendering@gde@@PEAPEAV123@@std@@YAPEAPEAVDrawCall@rendering@gde@@PEAPEAV123@00@Z
	??$_Copy_memmove@PEAUMaterialTexture@rendering@gde@@PEAU123@@std@@YAPEAUMaterialTexture@rendering@gde@@PEAU123@00@Z
	??$_Copy_memmove@PEBQEAVDrawCall@rendering@gde@@PEAPEAV123@@std@@YAPEAPEAVDrawCall@rendering@gde@@PEBQEAV123@0PEAPEAV123@@Z
	??$_Deallocate@$07@std@@YAXPEAX_K@Z
	??$_Deallocate@$0BA@@std@@YAXPEAX_K@Z
	??$_Deallocate_plain@V?$allocator@U_Container_proxy@std@@@std@@@std@@YAXAEAV?$allocator@U_Container_proxy@std@@@0@QEAU_Container_proxy@0@@Z
	??$_Delete_plain_internal@V?$allocator@U_Container_proxy@std@@@std@@@std@@YAXAEAV?$allocator@U_Container_proxy@std@@@0@QEAU_Container_proxy@0@@Z
	??$_Destroy_in_place@PEAD@std@@YAXAEAPEAD@Z
	??$_Destroy_in_place@PEAU?$_List_node@PEAVActionImplementation_base@input@gde@@PEAX@std@@@std@@YAXAEAPEAU?$_List_node@PEAVActionImplementation_base@input@gde@@PEAX@0@@Z
	??$_Destroy_in_place@PEAU?$_List_node@PEAVHandler@gde@@PEAX@std@@@std@@YAXAEAPEAU?$_List_node@PEAVHandler@gde@@PEAX@0@@Z
	??$_Destroy_in_place@PEAU?$_List_node@PEAVObject@gde@@PEAX@std@@@std@@YAXAEAPEAU?$_List_node@PEAVObject@gde@@PEAX@0@@Z
	??$_Destroy_in_place@PEAU?$_List_node@U?$pair@$$CBV?$basic_string@DU?$char_traits@D@std@@V?$allocator@D@2@@std@@V?$list@PEAVActionImplementation_base@input@gde@@V?$allocator@PEAVActionImplementation_base@input@gde@@@std@@@2@@std@@PEAX@std@@@std@@YAXAEAPEAU?$_List_node@U?$pair@$$CBV?$basic_string@DU?$char_traits@D@std@@V?$allocator@D@2@@std@@V?$list@PEAVActionImplementation_base@input@gde@@V?$allocator@PEAVActionImplementation_base@input@gde@@@std@@@2@@std@@PEAX@0@@Z
	??$_Destroy_in_place@PEAU?$_List_node@U?$pair@QEBDUMaterialOverride@rendering@gde@@@std@@PEAX@std@@@std@@YAXAEAPEAU?$_List_node@U?$pair@QEBDUMaterialOverride@rendering@gde@@@std@@PEAX@0@@Z
	??$_Destroy_range@PEAV?$_List_unchecked_iterator@V?$_List_val@U?$_List_simple_types@U?$pair@$$CBV?$basic_string@DU?$char_traits@D@std@@V?$allocator@D@2@@std@@V?$list@PEAVActionImplementation_base@input@gde@@V?$allocator@PEAVActionImplementation_base@input@gde@@@std@@@2@@std@@@std@@@std@@@std@@PEAV12@@std@@YAXPEAV?$_List_unchecked_iterator@V?$_List_val@U?$_List_simple_types@U?$pair@$$CBV?$basic_string@DU?$char_traits@D@std@@V?$allocator@D@2@@std@@V?$list@PEAVActionImplementation_base@input@gde@@V?$allocator@PEAVActionImplementation_base@input@gde@@@std@@@2@@std@@@std@@@std@@@0@QEAV10@@Z
	??$_Destroy_range@PEAV?$_List_unchecked_iterator@V?$_List_val@U?$_List_simple_types@U?$pair@QEBDUMaterialOverride@rendering@gde@@@std@@@std@@@std@@@std@@PEAV12@@std@@YAXPEAV?$_List_unchecked_iterator@V?$_List_val@U?$_List_simple_types@U?$pair@QEBDUMaterialOverride@rendering@gde@@@std@@@std@@@std@@@0@QEAV10@@Z
	??$_Destroy_range@V?$allocator@PEAH@std@@@std@@YAXPEAPEAHQEAPEAHAEAV?$allocator@PEAH@0@@Z
	??$_Destroy_range@V?$allocator@PEAM@std@@@std@@YAXPEAPEAMQEAPEAMAEAV?$allocator@PEAM@0@@Z
	??$_Destroy_range@V?$allocator@PEAVDrawCall@rendering@gde@@@std@@@std@@YAXPEAPEAVDrawCall@rendering@gde@@QEAPEAV123@AEAV?$allocator@PEAVDrawCall@rendering@gde@@@0@@Z
	??$_Destroy_range@V?$allocator@UMaterialTexture@rendering@gde@@@std@@@std@@YAXPEAUMaterialTexture@rendering@gde@@QEAU123@AEAV?$allocator@UMaterialTexture@rendering@gde@@@0@@Z
	??$_Emplace@AEBQEAVActionImplementation_base@input@gde@@@?$list@PEAVActionImplementation_base@input@gde@@V?$allocator@PEAVActionImplementation_base@input@gde@@@std@@@std@@QEAAPEAU?$_List_node@PEAVActionImplementation_base@input@gde@@PEAX@1@QEAU21@AEBQEAVActionImplementation_base@input@gde@@@Z
	??$_Emplace@AEBQEAVEarlyUpdate@gde@@@?$list@PEAVEarlyUpdate@gde@@V?$allocator@PEAVEarlyUpdate@gde@@@std@@@std@@QEAAPEAU?$_List_node@PEAVEarlyUpdate@gde@@PEAX@1@QEAU21@AEBQEAVEarlyUpdate@gde@@@Z
	??$_Emplace@AEBQEAVInputPlayer@gde@@@?$list@PEAVInputPlayer@gde@@V?$allocator@PEAVInputPlayer@gde@@@std@@@std@@QEAAPEAU?$_List_node@PEAVInputPlayer@gde@@PEAX@1@QEAU21@AEBQEAVInputPlayer@gde@@@Z
	??$_Emplace@AEBQEAVLateUpdate@gde@@@?$list@PEAVLateUpdate@gde@@V?$allocator@PEAVLateUpdate@gde@@@std@@@std@@QEAAPEAU?$_List_node@PEAVLateUpdate@gde@@PEAX@1@QEAU21@AEBQEAVLateUpdate@gde@@@Z
	??$_Emplace@AEBQEAVLightObject@gde@@@?$list@PEAVLightObject@gde@@V?$allocator@PEAVLightObject@gde@@@std@@@std@@QEAAPEAU?$_List_node@PEAVLightObject@gde@@PEAX@1@QEAU21@AEBQEAVLightObject@gde@@@Z
	??$_Emplace@AEBQEAVObject@gde@@@?$list@PEAVObject@gde@@V?$allocator@PEAVObject@gde@@@std@@@std@@QEAAPEAU?$_List_node@PEAVObject@gde@@PEAX@1@QEAU21@AEBQEAVObject@gde@@@Z
	??$_Emplace@AEBQEAVUpdate@gde@@@?$list@PEAVUpdate@gde@@V?$allocator@PEAVUpdate@gde@@@std@@@std@@QEAAPEAU?$_List_node@PEAVUpdate@gde@@PEAX@1@QEAU21@AEBQEAVUpdate@gde@@@Z
	??$_Emplace_back@AEAPEAVDrawCall@rendering@gde@@@?$_Uninitialized_backout_al@V?$allocator@PEAVDrawCall@rendering@gde@@@std@@@std@@QEAAXAEAPEAVDrawCall@rendering@gde@@@Z
	??$_Emplace_back@AEBQEAVDrawCall@rendering@gde@@@?$_Uninitialized_backout_al@V?$allocator@PEAVDrawCall@rendering@gde@@@std@@@std@@QEAAXAEBQEAVDrawCall@rendering@gde@@@Z
	??$_Emplace_back@AEBV?$_List_unchecked_iterator@V?$_List_val@U?$_List_simple_types@U?$pair@$$CBV?$basic_string@DU?$char_traits@D@std@@V?$allocator@D@2@@std@@V?$list@PEAVActionImplementation_base@input@gde@@V?$allocator@PEAVActionImplementation_base@input@gde@@@std@@@2@@std@@@std@@@std@@@std@@@?$_Uninitialized_backout@PEAV?$_List_unchecked_iterator@V?$_List_val@U?$_List_simple_types@U?$pair@$$CBV?$basic_string@DU?$char_traits@D@std@@V?$allocator@D@2@@std@@V?$list@PEAVActionImplementation_base@input@gde@@V?$allocator@PEAVActionImplementation_base@input@gde@@@std@@@2@@std@@@std@@@std@@@std@@@std@@QEAAXAEBV?$_List_unchecked_iterator@V?$_List_val@U?$_List_simple_types@U?$pair@$$CBV?$basic_string@DU?$char_traits@D@std@@V?$allocator@D@2@@std@@V?$list@PEAVActionImplementation_base@input@gde@@V?$allocator@PEAVActionImplementation_base@input@gde@@@std@@@2@@std@@@std@@@std@@@1@@Z
	??$_Emplace_back@AEBV?$_List_unchecked_iterator@V?$_List_val@U?$_List_simple_types@U?$pair@QEBDUMaterialOverride@rendering@gde@@@std@@@std@@@std@@@std@@@?$_Uninitialized_backout@PEAV?$_List_unchecked_iterator@V?$_List_val@U?$_List_simple_types@U?$pair@QEBDUMaterialOverride@rendering@gde@@@std@@@std@@@std@@@std@@@std@@QEAAXAEBV?$_List_unchecked_iterator@V?$_List_val@U?$_List_simple_types@U?$pair@QEBDUMaterialOverride@rendering@gde@@@std@@@std@@@std@@@1@@Z
	??$_Emplace_back@UMaterialTexture@rendering@gde@@@?$_Uninitialized_backout_al@V?$allocator@UMaterialTexture@rendering@gde@@@std@@@std@@QEAAX$$QEAUMaterialTexture@rendering@gde@@@Z
	??$_Emplace_back_with_unused_capacity@AEBUMaterialTexture@rendering@gde@@@?$vector@UMaterialTexture@rendering@gde@@V?$allocator@UMaterialTexture@rendering@gde@@@std@@@std@@AEAAAEAUMaterialTexture@rendering@gde@@AEBU234@@Z
	??$_Emplace_one_at_back@AEBUMaterialTexture@rendering@gde@@@?$vector@UMaterialTexture@rendering@gde@@V?$allocator@UMaterialTexture@rendering@gde@@@std@@@std@@AEAAAEAUMaterialTexture@rendering@gde@@AEBU234@@Z
	??$_Emplace_reallocate@AEBUMaterialTexture@rendering@gde@@@?$vector@UMaterialTexture@rendering@gde@@V?$allocator@UMaterialTexture@rendering@gde@@@std@@@std@@AEAAPEAUMaterialTexture@rendering@gde@@QEAU234@AEBU234@@Z
	??$_Find@V?$basic_string@DU?$char_traits@D@std@@V?$allocator@D@2@@std@@@?$_Hash@V?$_Umap_traits@V?$basic_string@DU?$char_traits@D@std@@V?$allocator@D@2@@std@@V?$list@PEAVActionImplementation_base@input@gde@@V?$allocator@PEAVActionImplementation_base@input@gde@@@std@@@2@V?$_Uhash_compare@V?$basic_string@DU?$char_traits@D@std@@V?$allocator@D@2@@std@@U?$hash@V?$basic_string@DU?$char_traits@D@std@@V?$allocator@D@2@@std@@@2@U?$equal_to@V?$basic_string@DU?$char_traits@D@std@@V?$allocator@D@2@@std@@@2@@2@V?$allocator@U?$pair@$$CBV?$basic_string@DU?$char_traits@D@std@@V?$allocator@D@2@@std@@V?$list@PEAVActionImplementation_base@input@gde@@V?$allocator@PEAVActionImplementation_base@input@gde@@@std@@@2@@std@@@2@$0A@@std@@@std@@AEBAPEAU?$_List_node@U?$pair@$$CBV?$basic_string@DU?$char_traits@D@std@@V?$allocator@D@2@@std@@V?$list@PEAVActionImplementation_base@input@gde@@V?$allocator@PEAVActionImplementation_base@input@gde@@@std@@@2@@std@@PEAX@1@AEBV?$basic_string@DU?$char_traits@D@std@@V?$allocator@D@2@@1@_K@Z
	??$_Find_last@PEBD@?$_Hash@V?$_Umap_traits@PEBDUMaterialOverride@rendering@gde@@V?$_Uhash_compare@PEBDU?$hash@PEBD@std@@U?$equal_to@PEBD@2@@std@@V?$allocator@U?$pair@QEBDUMaterialOverride@rendering@gde@@@std@@@5@$0A@@std@@@std@@IEBA?AU?$_Hash_find_last_result@PEAU?$_List_node@U?$pair@QEBDUMaterialOverride@rendering@gde@@@std@@PEAX@std@@@1@AEBQEBD_K@Z
	??$_Find_last@V?$basic_string@DU?$char_traits@D@std@@V?$allocator@D@2@@std@@@?$_Hash@V?$_Umap_traits@V?$basic_string@DU?$char_traits@D@std@@V?$allocator@D@2@@std@@V?$list@PEAVActionImplementation_base@input@gde@@V?$allocator@PEAVActionImplementation_base@input@gde@@@std@@@2@V?$_Uhash_compare@V?$basic_string@DU?$char_traits@D@std@@V?$allocator@D@2@@std@@U?$hash@V?$basic_string@DU?$char_traits@D@std@@V?$allocator@D@2@@std@@@2@U?$equal_to@V?$basic_string@DU?$char_traits@D@std@@V?$allocator@D@2@@std@@@2@@2@V?$allocator@U?$pair@$$CBV?$basic_string@DU?$char_traits@D@std@@V?$allocator@D@2@@std@@V?$list@PEAVActionImplementation_base@input@gde@@V?$allocator@PEAVActionImplementation_base@input@gde@@@std@@@2@@std@@@2@$0A@@std@@@std@@IEBA?AU?$_Hash_find_last_result@PEAU?$_List_node@U?$pair@$$CBV?$basic_string@DU?$char_traits@D@std@@V?$allocator@D@2@@std@@V?$list@PEAVActionImplementation_base@input@gde@@V?$allocator@PEAVActionImplementation_base@input@gde@@@std@@@2@@std@@PEAX@std@@@1@AEBV?$basic_string@DU?$char_traits@D@std@@V?$allocator@D@2@@1@_K@Z
	??$_Fnv1a_append_value@PEBD@std@@YA_K_KAEBQEBD@Z
	??$_Free_non_head@V?$allocator@U?$_List_node@PEAVActionImplementation_base@input@gde@@PEAX@std@@@std@@@?$_List_node@PEAVActionImplementation_base@input@gde@@PEAX@std@@SAXAEAV?$allocator@U?$_List_node@PEAVActionImplementation_base@input@gde@@PEAX@std@@@1@PEAU01@@Z
	??$_Free_non_head@V?$allocator@U?$_List_node@PEAVHandler@gde@@PEAX@std@@@std@@@?$_List_node@PEAVHandler@gde@@PEAX@std@@SAXAEAV?$allocator@U?$_List_node@PEAVHandler@gde@@PEAX@std@@@1@PEAU01@@Z
	??$_Free_non_head@V?$allocator@U?$_List_node@PEAVObject@gde@@PEAX@std@@@std@@@?$_List_node@PEAVObject@gde@@PEAX@std@@SAXAEAV?$allocator@U?$_List_node@PEAVObject@gde@@PEAX@std@@@1@PEAU01@@Z
	??$_Free_non_head@V?$allocator@U?$_List_node@U?$pair@$$CBV?$basic_string@DU?$char_traits@D@std@@V?$allocator@D@2@@std@@V?$list@PEAVActionImplementation_base@input@gde@@V?$allocator@PEAVActionImplementation_base@input@gde@@@std@@@2@@std@@PEAX@std@@@std@@@?$_List_node@U?$pair@$$CBV?$basic_string@DU?$char_traits@D@std@@V?$allocator@D@2@@std@@V?$list@PEAVActionImplementation_base@input@gde@@V?$allocator@PEAVActionImplementation_base@input@gde@@@std@@@2@@std@@PEAX@std@@SAXAEAV?$allocator@U?$_List_node@U?$pair@$$CBV?$basic_string@DU?$char_traits@D@std@@V?$allocator@D@2@@std@@V?$list@PEAVActionImplementation_base@input@gde@@V?$allocator@PEAVActionImplementation_base@input@gde@@@std@@@2@@std@@PEAX@std@@@1@PEAU01@@Z
	??$_Free_non_head@V?$allocator@U?$_List_node@U?$pair@QEBDUMaterialOverride@rendering@gde@@@std@@PEAX@std@@@std@@@?$_List_node@U?$pair@QEBDUMaterialOverride@rendering@gde@@@std@@PEAX@std@@SAXAEAV?$allocator@U?$_List_node@U?$pair@QEBDUMaterialOverride@rendering@gde@@@std@@PEAX@std@@@1@PEAU01@@Z
	??$_Freenode0@V?$allocator@U?$_List_node@PEAVActionImplementation_base@input@gde@@PEAX@std@@@std@@@?$_List_node@PEAVActionImplementation_base@input@gde@@PEAX@std@@SAXAEAV?$allocator@U?$_List_node@PEAVActionImplementation_base@input@gde@@PEAX@std@@@1@PEAU01@@Z
	??$_Freenode0@V?$allocator@U?$_List_node@PEAVHandler@gde@@PEAX@std@@@std@@@?$_List_node@PEAVHandler@gde@@PEAX@std@@SAXAEAV?$allocator@U?$_List_node@PEAVHandler@gde@@PEAX@std@@@1@PEAU01@@Z
	??$_Freenode0@V?$allocator@U?$_List_node@PEAVObject@gde@@PEAX@std@@@std@@@?$_List_node@PEAVObject@gde@@PEAX@std@@SAXAEAV?$allocator@U?$_List_node@PEAVObject@gde@@PEAX@std@@@1@PEAU01@@Z
	??$_Freenode0@V?$allocator@U?$_List_node@U?$pair@$$CBV?$basic_string@DU?$char_traits@D@std@@V?$allocator@D@2@@std@@V?$list@PEAVActionImplementation_base@input@gde@@V?$allocator@PEAVActionImplementation_base@input@gde@@@std@@@2@@std@@PEAX@std@@@std@@@?$_List_node@U?$pair@$$CBV?$basic_string@DU?$char_traits@D@std@@V?$allocator@D@2@@std@@V?$list@PEAVActionImplementation_base@input@gde@@V?$allocator@PEAVActionImplementation_base@input@gde@@@std@@@2@@std@@PEAX@std@@SAXAEAV?$allocator@U?$_List_node@U?$pair@$$CBV?$basic_string@DU?$char_traits@D@std@@V?$allocator@D@2@@std@@V?$list@PEAVActionImplementation_base@input@gde@@V?$allocator@PEAVActionImplementation_base@input@gde@@@std@@@2@@std@@PEAX@std@@@1@PEAU01@@Z
	??$_Freenode0@V?$allocator@U?$_List_node@U?$pair@QEBDUMaterialOverride@rendering@gde@@@std@@PEAX@std@@@std@@@?$_List_node@U?$pair@QEBDUMaterialOverride@rendering@gde@@@std@@PEAX@std@@SAXAEAV?$allocator@U?$_List_node@U?$pair@QEBDUMaterialOverride@rendering@gde@@@std@@PEAX@std@@@1@PEAU01@@Z
	??$_Freenode@V?$allocator@U?$_List_node@PEAVActionImplementation_base@input@gde@@PEAX@std@@@std@@@?$_List_node@PEAVActionImplementation_base@input@gde@@PEAX@std@@SAXAEAV?$allocator@U?$_List_node@PEAVActionImplementation_base@input@gde@@PEAX@std@@@1@PEAU01@@Z
	??$_Freenode@V?$allocator@U?$_List_node@PEAVHandler@gde@@PEAX@std@@@std@@@?$_List_node@PEAVHandler@gde@@PEAX@std@@SAXAEAV?$allocator@U?$_List_node@PEAVHandler@gde@@PEAX@std@@@1@PEAU01@@Z
	??$_Freenode@V?$allocator@U?$_List_node@PEAVObject@gde@@PEAX@std@@@std@@@?$_List_node@PEAVObject@gde@@PEAX@std@@SAXAEAV?$allocator@U?$_List_node@PEAVObject@gde@@PEAX@std@@@1@PEAU01@@Z
	??$_Freenode@V?$allocator@U?$_List_node@U?$pair@$$CBV?$basic_string@DU?$char_traits@D@std@@V?$allocator@D@2@@std@@V?$list@PEAVActionImplementation_base@input@gde@@V?$allocator@PEAVActionImplementation_base@input@gde@@@std@@@2@@std@@PEAX@std@@@std@@@?$_List_node@U?$pair@$$CBV?$basic_string@DU?$char_traits@D@std@@V?$allocator@D@2@@std@@V?$list@PEAVActionImplementation_base@input@gde@@V?$allocator@PEAVActionImplementation_base@input@gde@@@std@@@2@@std@@PEAX@std@@SAXAEAV?$allocator@U?$_List_node@U?$pair@$$CBV?$basic_string@DU?$char_traits@D@std@@V?$allocator@D@2@@std@@V?$list@PEAVActionImplementation_base@input@gde@@V?$allocator@PEAVActionImplementation_base@input@gde@@@std@@@2@@std@@PEAX@std@@@1@PEAU01@@Z
	??$_Freenode@V?$allocator@U?$_List_node@U?$pair@QEBDUMaterialOverride@rendering@gde@@@std@@PEAX@std@@@std@@@?$_List_node@U?$pair@QEBDUMaterialOverride@rendering@gde@@@std@@PEAX@std@@SAXAEAV?$allocator@U?$_List_node@U?$pair@QEBDUMaterialOverride@rendering@gde@@@std@@PEAX@std@@@1@PEAU01@@Z
	??$_Get_size_of_n@$00@std@@YA_K_K@Z
	??$_Get_size_of_n@$07@std@@YA_K_K@Z
	??$_Get_size_of_n@$0BA@@std@@YA_K_K@Z
	??$_Get_size_of_n@$0BI@@std@@YA_K_K@Z
	??$_Get_size_of_n@$0FA@@std@@YA_K_K@Z
	??$_Get_size_of_n@$0GA@@std@@YA_K_K@Z
	??$_Get_unwrapped@AEBQEAUMaterialTexture@rendering@gde@@@std@@YA?A_TAEBQEAUMaterialTexture@rendering@gde@@@Z
	??$_Get_unwrapped@AEBQEAV?$_List_unchecked_iterator@V?$_List_val@U?$_List_simple_types@U?$pair@$$CBV?$basic_string@DU?$char_traits@D@std@@V?$allocator@D@2@@std@@V?$list@PEAVActionImplementation_base@input@gde@@V?$allocator@PEAVActionImplementation_base@input@gde@@@std@@@2@@std@@@std@@@std@@@std@@@std@@YA?A_TAEBQEAV?$_List_unchecked_iterator@V?$_List_val@U?$_List_simple_types@U?$pair@$$CBV?$basic_string@DU?$char_traits@D@std@@V?$allocator@D@2@@std@@V?$list@PEAVActionImplementation_base@input@gde@@V?$allocator@PEAVActionImplementation_base@input@gde@@@std@@@2@@std@@@std@@@std@@@0@@Z
	??$_Get_unwrapped@AEBQEAV?$_List_unchecked_iterator@V?$_List_val@U?$_List_simple_types@U?$pair@QEBDUMaterialOverride@rendering@gde@@@std@@@std@@@std@@@std@@@std@@YA?A_TAEBQEAV?$_List_unchecked_iterator@V?$_List_val@U?$_List_simple_types@U?$pair@QEBDUMaterialOverride@rendering@gde@@@std@@@std@@@std@@@0@@Z
	??$_Get_unwrapped@PEAPEAVDrawCall@rendering@gde@@@std@@YA?A_T$$QEAPEAPEAVDrawCall@rendering@gde@@@Z
	??$_Get_unwrapped@PEBQEAVDrawCall@rendering@gde@@@std@@YA?A_T$$QEAPEBQEAVDrawCall@rendering@gde@@@Z
	??$_Hash_array_representation@D@std@@YA_KQEBD_K@Z
	??$_Hash_representation@PEBD@std@@YA_KAEBQEBD@Z
	??$_Insert_or_assign@AEBQEBDAEAUMaterialOverride@rendering@gde@@@?$unordered_map@PEBDUMaterialOverride@rendering@gde@@U?$hash@PEBD@std@@U?$equal_to@PEBD@5@V?$allocator@U?$pair@QEBDUMaterialOverride@rendering@gde@@@std@@@5@@std@@AEAA?AU?$pair@V?$_List_iterator@V?$_List_val@U?$_List_simple_types@U?$pair@QEBDUMaterialOverride@rendering@gde@@@std@@@std@@@std@@@std@@_N@1@AEBQEBDAEAUMaterialOverride@rendering@gde@@@Z
	??$_Insert_or_assign@AEBV?$basic_string@DU?$char_traits@D@std@@V?$allocator@D@2@@std@@V?$list@PEAVActionImplementation_base@input@gde@@V?$allocator@PEAVActionImplementation_base@input@gde@@@std@@@2@@?$unordered_map@V?$basic_string@DU?$char_traits@D@std@@V?$allocator@D@2@@std@@V?$list@PEAVActionImplementation_base@input@gde@@V?$allocator@PEAVActionImplementation_base@input@gde@@@std@@@2@U?$hash@V?$basic_string@DU?$char_traits@D@std@@V?$allocator@D@2@@std@@@2@U?$equal_to@V?$basic_string@DU?$char_traits@D@std@@V?$allocator@D@2@@std@@@2@V?$allocator@U?$pair@$$CBV?$basic_string@DU?$char_traits@D@std@@V?$allocator@D@2@@std@@V?$list@PEAVActionImplementation_base@input@gde@@V?$allocator@PEAVActionImplementation_base@input@gde@@@std@@@2@@std@@@2@@std@@AEAA?AU?$pair@V?$_List_iterator@V?$_List_val@U?$_List_simple_types@U?$pair@$$CBV?$basic_string@DU?$char_traits@D@std@@V?$allocator@D@2@@std@@V?$list@PEAVActionImplementation_base@input@gde@@V?$allocator@PEAVActionImplementation_base@input@gde@@@std@@@2@@std@@@std@@@std@@@std@@_N@1@AEBV?$basic_string@DU?$char_traits@D@std@@V?$allocator@D@2@@1@$$QEAV?$list@PEAVActionImplementation_base@input@gde@@V?$allocator@PEAVActionImplementation_base@input@gde@@@std@@@1@@Z
	??$_Kfn@$$CBV?$basic_string@DU?$char_traits@D@std@@V?$allocator@D@2@@std@@V?$list@PEAVActionImplementation_base@input@gde@@V?$allocator@PEAVActionImplementation_base@input@gde@@@std@@@2@@?$_Umap_traits@V?$basic_string@DU?$char_traits@D@std@@V?$allocator@D@2@@std@@V?$list@PEAVActionImplementation_base@input@gde@@V?$allocator@PEAVActionImplementation_base@input@gde@@@std@@@2@V?$_Uhash_compare@V?$basic_string@DU?$char_traits@D@std@@V?$allocator@D@2@@std@@U?$hash@V?$basic_string@DU?$char_traits@D@std@@V?$allocator@D@2@@std@@@2@U?$equal_to@V?$basic_string@DU?$char_traits@D@std@@V?$allocator@D@2@@std@@@2@@2@V?$allocator@U?$pair@$$CBV?$basic_string@DU?$char_traits@D@std@@V?$allocator@D@2@@std@@V?$list@PEAVActionImplementation_base@input@gde@@V?$allocator@PEAVActionImplementation_base@input@gde@@@std@@@2@@std@@@2@$0A@@std@@SAAEBV?$basic_string@DU?$char_traits@D@std@@V?$allocator@D@2@@1@AEBU?$pair@$$CBV?$basic_string@DU?$char_traits@D@std@@V?$allocator@D@2@@std@@V?$list@PEAVActionImplementation_base@input@gde@@V?$allocator@PEAVActionImplementation_base@input@gde@@@std@@@2@@1@@Z
	??$_Kfn@QEBDUMaterialOverride@rendering@gde@@@?$_Umap_traits@PEBDUMaterialOverride@rendering@gde@@V?$_Uhash_compare@PEBDU?$hash@PEBD@std@@U?$equal_to@PEBD@2@@std@@V?$allocator@U?$pair@QEBDUMaterialOverride@rendering@gde@@@std@@@5@$0A@@std@@SAAEBQEBDAEBU?$pair@QEBDUMaterialOverride@rendering@gde@@@1@@Z
	??$_Max_limit@_J@std@@YA_JXZ
	??$_Pocma@V?$allocator@U?$_List_node@PEAVActionImplementation_base@input@gde@@PEAX@std@@@std@@@std@@YAXAEAV?$allocator@U?$_List_node@PEAVActionImplementation_base@input@gde@@PEAX@std@@@0@0@Z
	??$_To_address@PEAPEAVDrawCall@rendering@gde@@@std@@YA?A_PAEBQEAPEAVDrawCall@rendering@gde@@@Z
	??$_To_address@PEAUMaterialTexture@rendering@gde@@@std@@YA?A_PAEBQEAUMaterialTexture@rendering@gde@@@Z
	??$_To_address@PEBQEAVDrawCall@rendering@gde@@@std@@YA?A_PAEBQEBQEAVDrawCall@rendering@gde@@@Z
	??$_Traits_equal@U?$char_traits@D@std@@@std@@YA_NQEBD_K01@Z
	??$_Try_emplace@AEBV?$basic_string@DU?$char_traits@D@std@@V?$allocator@D@2@@std@@$$V@?$_Hash@V?$_Umap_traits@V?$basic_string@DU?$char_traits@D@std@@V?$allocator@D@2@@std@@V?$list@PEAVActionImplementation_base@input@gde@@V?$allocator@PEAVActionImplementation_base@input@gde@@@std@@@2@V?$_Uhash_compare@V?$basic_string@DU?$char_traits@D@std@@V?$allocator@D@2@@std@@U?$hash@V?$basic_string@DU?$char_traits@D@std@@V?$allocator@D@2@@std@@@2@U?$equal_to@V?$basic_string@DU?$char_traits@D@std@@V?$allocator@D@2@@std@@@2@@2@V?$allocator@U?$pair@$$CBV?$basic_string@DU?$char_traits@D@std@@V?$allocator@D@2@@std@@V?$list@PEAVActionImplementation_base@input@gde@@V?$allocator@PEAVActionImplementation_base@input@gde@@@std@@@2@@std@@@2@$0A@@std@@@std@@IEAA?AU?$pair@PEAU?$_List_node@U?$pair@$$CBV?$basic_string@DU?$char_traits@D@std@@V?$allocator@D@2@@std@@V?$list@PEAVActionImplementation_base@input@gde@@V?$allocator@PEAVActionImplementation_base@input@gde@@@std@@@2@@std@@PEAX@std@@_N@1@AEBV?$basic_string@DU?$char_traits@D@std@@V?$allocator@D@2@@1@@Z
	??$_Tuple_get@$0A@AEBV?$basic_string@DU?$char_traits@D@std@@V?$allocator@D@2@@std@@@std@@YA$$QEA_P$$QEAV?$tuple@AEBV?$basic_string@DU?$char_traits@D@std@@V?$allocator@D@2@@std@@@0@@Z
	??$_Unfancy@D@std@@YAPEADPEAD@Z
	??$_Unfancy@PEAVDrawCall@rendering@gde@@@std@@YAPEAPEAVDrawCall@rendering@gde@@PEAPEAV123@@Z
	??$_Unfancy@UMaterialTexture@rendering@gde@@@std@@YAPEAUMaterialTexture@rendering@gde@@PEAU123@@Z
	??$_Unfancy@U_Container_proxy@std@@@std@@YAPEAU_Container_proxy@0@PEAU10@@Z
	??$_Uninitialized_copy@PEAPEAVDrawCall@rendering@gde@@PEAPEAV123@V?$allocator@PEAVDrawCall@rendering@gde@@@std@@@std@@YAPEAPEAVDrawCall@rendering@gde@@PEAPEAV123@00AEAV?$allocator@PEAVDrawCall@rendering@gde@@@0@@Z
	??$_Uninitialized_copy@PEBQEAVDrawCall@rendering@gde@@PEBQEAV123@V?$allocator@PEAVDrawCall@rendering@gde@@@std@@@std@@YAPEAPEAVDrawCall@rendering@gde@@PEBQEAV123@0PEAPEAV123@AEAV?$allocator@PEAVDrawCall@rendering@gde@@@0@@Z
	??$_Uninitialized_move@PEAUMaterialTexture@rendering@gde@@V?$allocator@UMaterialTexture@rendering@gde@@@std@@@std@@YAPEAUMaterialTexture@rendering@gde@@QEAU123@0PEAU123@AEAV?$allocator@UMaterialTexture@rendering@gde@@@0@@Z
	??$addressof@$$CBV?$_List_val@U?$_List_simple_types@U?$pair@$$CBV?$basic_string@DU?$char_traits@D@std@@V?$allocator@D@2@@std@@V?$list@PEAVActionImplementation_base@input@gde@@V?$allocator@PEAVActionImplementation_base@input@gde@@@std@@@2@@std@@@std@@@std@@@std@@YAPEBV?$_List_val@U?$_List_simple_types@U?$pair@$$CBV?$basic_string@DU?$char_traits@D@std@@V?$allocator@D@2@@std@@V?$list@PEAVActionImplementation_base@input@gde@@V?$allocator@PEAVActionImplementation_base@input@gde@@@std@@@2@@std@@@std@@@0@AEBV10@@Z
	??$addressof@$$CBV?$_List_val@U?$_List_simple_types@U?$pair@QEBDUMaterialOverride@rendering@gde@@@std@@@std@@@std@@@std@@YAPEBV?$_List_val@U?$_List_simple_types@U?$pair@QEBDUMaterialOverride@rendering@gde@@@std@@@std@@@0@AEBV10@@Z
	??$addressof@PEAD@std@@YAPEAPEADAEAPEAD@Z
	??$addressof@PEAU?$_List_node@PEAVActionImplementation_base@input@gde@@PEAX@std@@@std@@YAPEAPEAU?$_List_node@PEAVActionImplementation_base@input@gde@@PEAX@0@AEAPEAU10@@Z
	??$addressof@PEAU?$_List_node@PEAVEarlyUpdate@gde@@PEAX@std@@@std@@YAPEAPEAU?$_List_node@PEAVEarlyUpdate@gde@@PEAX@0@AEAPEAU10@@Z
	??$addressof@PEAU?$_List_node@PEAVHandler@gde@@PEAX@std@@@std@@YAPEAPEAU?$_List_node@PEAVHandler@gde@@PEAX@0@AEAPEAU10@@Z
	??$addressof@PEAU?$_List_node@PEAVInputPlayer@gde@@PEAX@std@@@std@@YAPEAPEAU?$_List_node@PEAVInputPlayer@gde@@PEAX@0@AEAPEAU10@@Z
	??$addressof@PEAU?$_List_node@PEAVLateUpdate@gde@@PEAX@std@@@std@@YAPEAPEAU?$_List_node@PEAVLateUpdate@gde@@PEAX@0@AEAPEAU10@@Z
	??$addressof@PEAU?$_List_node@PEAVLightObject@gde@@PEAX@std@@@std@@YAPEAPEAU?$_List_node@PEAVLightObject@gde@@PEAX@0@AEAPEAU10@@Z
	??$addressof@PEAU?$_List_node@PEAVObject@gde@@PEAX@std@@@std@@YAPEAPEAU?$_List_node@PEAVObject@gde@@PEAX@0@AEAPEAU10@@Z
	??$addressof@PEAU?$_List_node@PEAVUpdate@gde@@PEAX@std@@@std@@YAPEAPEAU?$_List_node@PEAVUpdate@gde@@PEAX@0@AEAPEAU10@@Z
	??$addressof@PEAU?$_List_node@U?$pair@$$CBV?$basic_string@DU?$char_traits@D@std@@V?$allocator@D@2@@std@@V?$list@PEAVActionImplementation_base@input@gde@@V?$allocator@PEAVActionImplementation_base@input@gde@@@std@@@2@@std@@PEAX@std@@@std@@YAPEAPEAU?$_List_node@U?$pair@$$CBV?$basic_string@DU?$char_traits@D@std@@V?$allocator@D@2@@std@@V?$list@PEAVActionImplementation_base@input@gde@@V?$allocator@PEAVActionImplementation_base@input@gde@@@std@@@2@@std@@PEAX@0@AEAPEAU10@@Z
	??$addressof@PEAU?$_List_node@U?$pair@QEBDUMaterialOverride@rendering@gde@@@std@@PEAX@std@@@std@@YAPEAPEAU?$_List_node@U?$pair@QEBDUMaterialOverride@rendering@gde@@@std@@PEAX@0@AEAPEAU10@@Z
	??$addressof@PEAVActionImplementation_base@input@gde@@@std@@YAPEAPEAVActionImplementation_base@input@gde@@AEAPEAV123@@Z
	??$addressof@PEAVEarlyUpdate@gde@@@std@@YAPEAPEAVEarlyUpdate@gde@@AEAPEAV12@@Z
	??$addressof@PEAVHandler@gde@@@std@@YAPEAPEAVHandler@gde@@AEAPEAV12@@Z
	??$addressof@PEAVInputPlayer@gde@@@std@@YAPEAPEAVInputPlayer@gde@@AEAPEAV12@@Z
	??$addressof@PEAVLateUpdate@gde@@@std@@YAPEAPEAVLateUpdate@gde@@AEAPEAV12@@Z
	??$addressof@PEAVLightObject@gde@@@std@@YAPEAPEAVLightObject@gde@@AEAPEAV12@@Z
	??$addressof@PEAVObject@gde@@@std@@YAPEAPEAVObject@gde@@AEAPEAV12@@Z
	??$addressof@PEAVUpdate@gde@@@std@@YAPEAPEAVUpdate@gde@@AEAPEAV12@@Z
	??$addressof@U?$pair@$$CBV?$basic_string@DU?$char_traits@D@std@@V?$allocator@D@2@@std@@V?$list@PEAVActionImplementation_base@input@gde@@V?$allocator@PEAVActionImplementation_base@input@gde@@@std@@@2@@std@@@std@@YAPEAU?$pair@$$CBV?$basic_string@DU?$char_traits@D@std@@V?$allocator@D@2@@std@@V?$list@PEAVActionImplementation_base@input@gde@@V?$allocator@PEAVActionImplementation_base@input@gde@@@std@@@2@@0@AEAU10@@Z
	??$addressof@U?$pair@QEBDUMaterialOverride@rendering@gde@@@std@@@std@@YAPEAU?$pair@QEBDUMaterialOverride@rendering@gde@@@0@AEAU10@@Z
	??$addressof@UMaterialTexture@rendering@gde@@@std@@YAPEAUMaterialTexture@rendering@gde@@AEAU123@@Z
	??$addressof@U_Container_base12@std@@@std@@YAPEAU_Container_base12@0@AEAU10@@Z
	??$addressof@U_Container_proxy@std@@@std@@YAPEAU_Container_proxy@0@AEAU10@@Z
	??$addressof@V?$_List_unchecked_iterator@V?$_List_val@U?$_List_simple_types@U?$pair@$$CBV?$basic_string@DU?$char_traits@D@std@@V?$allocator@D@2@@std@@V?$list@PEAVActionImplementation_base@input@gde@@V?$allocator@PEAVActionImplementation_base@input@gde@@@std@@@2@@std@@@std@@@std@@@std@@@std@@YAPEAV?$_List_unchecked_iterator@V?$_List_val@U?$_List_simple_types@U?$pair@$$CBV?$basic_string@DU?$char_traits@D@std@@V?$allocator@D@2@@std@@V?$list@PEAVActionImplementation_base@input@gde@@V?$allocator@PEAVActionImplementation_base@input@gde@@@std@@@2@@std@@@std@@@std@@@0@AEAV10@@Z
	??$addressof@V?$_List_unchecked_iterator@V?$_List_val@U?$_List_simple_types@U?$pair@QEBDUMaterialOverride@rendering@gde@@@std@@@std@@@std@@@std@@@std@@YAPEAV?$_List_unchecked_iterator@V?$_List_val@U?$_List_simple_types@U?$pair@QEBDUMaterialOverride@rendering@gde@@@std@@@std@@@std@@@0@AEAV10@@Z
	??$addressof@V?$_List_val@U?$_List_simple_types@U?$pair@$$CBV?$basic_string@DU?$char_traits@D@std@@V?$allocator@D@2@@std@@V?$list@PEAVActionImplementation_base@input@gde@@V?$allocator@PEAVActionImplementation_base@input@gde@@@std@@@2@@std@@@std@@@std@@@std@@YAPEAV?$_List_val@U?$_List_simple_types@U?$pair@$$CBV?$basic_string@DU?$char_traits@D@std@@V?$allocator@D@2@@std@@V?$list@PEAVActionImplementation_base@input@gde@@V?$allocator@PEAVActionImplementation_base@input@gde@@@std@@@2@@std@@@std@@@0@AEAV10@@Z
	??$addressof@V?$_String_val@U?$_Simple_types@D@std@@@std@@@std@@YAPEAV?$_String_val@U?$_Simple_types@D@std@@@0@AEAV10@@Z
	??$addressof@V?$list@PEAVActionImplementation_base@input@gde@@V?$allocator@PEAVActionImplementation_base@input@gde@@@std@@@std@@@std@@YAPEAV?$list@PEAVActionImplementation_base@input@gde@@V?$allocator@PEAVActionImplementation_base@input@gde@@@std@@@0@AEAV10@@Z
	??$construct@PEAVActionImplementation_base@input@gde@@AEBQEAV123@@?$_Default_allocator_traits@V?$allocator@U?$_List_node@PEAVActionImplementation_base@input@gde@@PEAX@std@@@std@@@std@@SAXAEAV?$allocator@U?$_List_node@PEAVActionImplementation_base@input@gde@@PEAX@std@@@1@QEAPEAVActionImplementation_base@input@gde@@AEBQEAV345@@Z
	??$construct@PEAVDrawCall@rendering@gde@@AEAPEAV123@@?$_Default_allocator_traits@V?$allocator@PEAVDrawCall@rendering@gde@@@std@@@std@@SAXAEAV?$allocator@PEAVDrawCall@rendering@gde@@@1@QEAPEAVDrawCall@rendering@gde@@AEAPEAV345@@Z
	??$construct@PEAVDrawCall@rendering@gde@@AEBQEAV123@@?$_Default_allocator_traits@V?$allocator@PEAVDrawCall@rendering@gde@@@std@@@std@@SAXAEAV?$allocator@PEAVDrawCall@rendering@gde@@@1@QEAPEAVDrawCall@rendering@gde@@AEBQEAV345@@Z
	??$construct@PEAVEarlyUpdate@gde@@AEBQEAV12@@?$_Default_allocator_traits@V?$allocator@U?$_List_node@PEAVEarlyUpdate@gde@@PEAX@std@@@std@@@std@@SAXAEAV?$allocator@U?$_List_node@PEAVEarlyUpdate@gde@@PEAX@std@@@1@QEAPEAVEarlyUpdate@gde@@AEBQEAV34@@Z
	??$construct@PEAVInputPlayer@gde@@AEBQEAV12@@?$_Default_allocator_traits@V?$allocator@U?$_List_node@PEAVInputPlayer@gde@@PEAX@std@@@std@@@std@@SAXAEAV?$allocator@U?$_List_node@PEAVInputPlayer@gde@@PEAX@std@@@1@QEAPEAVInputPlayer@gde@@AEBQEAV34@@Z
	??$construct@PEAVLateUpdate@gde@@AEBQEAV12@@?$_Default_allocator_traits@V?$allocator@U?$_List_node@PEAVLateUpdate@gde@@PEAX@std@@@std@@@std@@SAXAEAV?$allocator@U?$_List_node@PEAVLateUpdate@gde@@PEAX@std@@@1@QEAPEAVLateUpdate@gde@@AEBQEAV34@@Z
	??$construct@PEAVLightObject@gde@@AEBQEAV12@@?$_Default_allocator_traits@V?$allocator@U?$_List_node@PEAVLightObject@gde@@PEAX@std@@@std@@@std@@SAXAEAV?$allocator@U?$_List_node@PEAVLightObject@gde@@PEAX@std@@@1@QEAPEAVLightObject@gde@@AEBQEAV34@@Z
	??$construct@PEAVObject@gde@@AEBQEAV12@@?$_Default_allocator_traits@V?$allocator@U?$_List_node@PEAVObject@gde@@PEAX@std@@@std@@@std@@SAXAEAV?$allocator@U?$_List_node@PEAVObject@gde@@PEAX@std@@@1@QEAPEAVObject@gde@@AEBQEAV34@@Z
	??$construct@PEAVUpdate@gde@@AEBQEAV12@@?$_Default_allocator_traits@V?$allocator@U?$_List_node@PEAVUpdate@gde@@PEAX@std@@@std@@@std@@SAXAEAV?$allocator@U?$_List_node@PEAVUpdate@gde@@PEAX@std@@@1@QEAPEAVUpdate@gde@@AEBQEAV34@@Z
	??$construct@U?$pair@$$CBV?$basic_string@DU?$char_traits@D@std@@V?$allocator@D@2@@std@@V?$list@PEAVActionImplementation_base@input@gde@@V?$allocator@PEAVActionImplementation_base@input@gde@@@std@@@2@@std@@AEBUpiecewise_construct_t@2@V?$tuple@AEBV?$basic_string@DU?$char_traits@D@std@@V?$allocator@D@2@@std@@@2@V?$tuple@$$V@2@@?$_Default_allocator_traits@V?$allocator@U?$_List_node@U?$pair@$$CBV?$basic_string@DU?$char_traits@D@std@@V?$allocator@D@2@@std@@V?$list@PEAVActionImplementation_base@input@gde@@V?$allocator@PEAVActionImplementation_base@input@gde@@@std@@@2@@std@@PEAX@std@@@std@@@std@@SAXAEAV?$allocator@U?$_List_node@U?$pair@$$CBV?$basic_string@DU?$char_traits@D@std@@V?$allocator@D@2@@std@@V?$list@PEAVActionImplementation_base@input@gde@@V?$allocator@PEAVActionImplementation_base@input@gde@@@std@@@2@@std@@PEAX@std@@@1@QEAU?$pair@$$CBV?$basic_string@DU?$char_traits@D@std@@V?$allocator@D@2@@std@@V?$list@PEAVActionImplementation_base@input@gde@@V?$allocator@PEAVActionImplementation_base@input@gde@@@std@@@2@@1@AEBUpiecewise_construct_t@1@$$QEAV?$tuple@AEBV?$basic_string@DU?$char_traits@D@std@@V?$allocator@D@2@@std@@@1@$$QEAV?$tuple@$$V@1@@Z
	??$construct@U?$pair@$$CBV?$basic_string@DU?$char_traits@D@std@@V?$allocator@D@2@@std@@V?$list@PEAVActionImplementation_base@input@gde@@V?$allocator@PEAVActionImplementation_base@input@gde@@@std@@@2@@std@@AEBV?$basic_string@DU?$char_traits@D@std@@V?$allocator@D@2@@2@V?$list@PEAVActionImplementation_base@input@gde@@V?$allocator@PEAVActionImplementation_base@input@gde@@@std@@@2@@?$_Default_allocator_traits@V?$allocator@U?$_List_node@U?$pair@$$CBV?$basic_string@DU?$char_traits@D@std@@V?$allocator@D@2@@std@@V?$list@PEAVActionImplementation_base@input@gde@@V?$allocator@PEAVActionImplementation_base@input@gde@@@std@@@2@@std@@PEAX@std@@@std@@@std@@SAXAEAV?$allocator@U?$_List_node@U?$pair@$$CBV?$basic_string@DU?$char_traits@D@std@@V?$allocator@D@2@@std@@V?$list@PEAVActionImplementation_base@input@gde@@V?$allocator@PEAVActionImplementation_base@input@gde@@@std@@@2@@std@@PEAX@std@@@1@QEAU?$pair@$$CBV?$basic_string@DU?$char_traits@D@std@@V?$allocator@D@2@@std@@V?$list@PEAVActionImplementation_base@input@gde@@V?$allocator@PEAVActionImplementation_base@input@gde@@@std@@@2@@1@AEBV?$basic_string@DU?$char_traits@D@std@@V?$allocator@D@2@@1@$$QEAV?$list@PEAVActionImplementation_base@input@gde@@V?$allocator@PEAVActionImplementation_base@input@gde@@@std@@@1@@Z
	??$construct@U?$pair@QEBDUMaterialOverride@rendering@gde@@@std@@AEBQEBDAEAUMaterialOverride@rendering@gde@@@?$_Default_allocator_traits@V?$allocator@U?$_List_node@U?$pair@QEBDUMaterialOverride@rendering@gde@@@std@@PEAX@std@@@std@@@std@@SAXAEAV?$allocator@U?$_List_node@U?$pair@QEBDUMaterialOverride@rendering@gde@@@std@@PEAX@std@@@1@QEAU?$pair@QEBDUMaterialOverride@rendering@gde@@@1@AEBQEBDAEAUMaterialOverride@rendering@gde@@@Z
	??$construct@UMaterialTexture@rendering@gde@@AEBU123@@?$_Default_allocator_traits@V?$allocator@UMaterialTexture@rendering@gde@@@std@@@std@@SAXAEAV?$allocator@UMaterialTexture@rendering@gde@@@1@QEAUMaterialTexture@rendering@gde@@AEBU345@@Z
	??$construct@UMaterialTexture@rendering@gde@@U123@@?$_Default_allocator_traits@V?$allocator@UMaterialTexture@rendering@gde@@@std@@@std@@SAXAEAV?$allocator@UMaterialTexture@rendering@gde@@@1@QEAUMaterialTexture@rendering@gde@@$$QEAU345@@Z
	??$destroy@PEAU?$_List_node@PEAVEarlyUpdate@gde@@PEAX@std@@@?$_Default_allocator_traits@V?$allocator@U?$_List_node@PEAVEarlyUpdate@gde@@PEAX@std@@@std@@@std@@SAXAEAV?$allocator@U?$_List_node@PEAVEarlyUpdate@gde@@PEAX@std@@@1@QEAPEAU?$_List_node@PEAVEarlyUpdate@gde@@PEAX@1@@Z
	??$destroy@PEAU?$_List_node@PEAVInputPlayer@gde@@PEAX@std@@@?$_Default_allocator_traits@V?$allocator@U?$_List_node@PEAVInputPlayer@gde@@PEAX@std@@@std@@@std@@SAXAEAV?$allocator@U?$_List_node@PEAVInputPlayer@gde@@PEAX@std@@@1@QEAPEAU?$_List_node@PEAVInputPlayer@gde@@PEAX@1@@Z
	??$destroy@PEAU?$_List_node@PEAVLateUpdate@gde@@PEAX@std@@@?$_Default_allocator_traits@V?$allocator@U?$_List_node@PEAVLateUpdate@gde@@PEAX@std@@@std@@@std@@SAXAEAV?$allocator@U?$_List_node@PEAVLateUpdate@gde@@PEAX@std@@@1@QEAPEAU?$_List_node@PEAVLateUpdate@gde@@PEAX@1@@Z
	??$destroy@PEAU?$_List_node@PEAVLightObject@gde@@PEAX@std@@@?$_Default_allocator_traits@V?$allocator@U?$_List_node@PEAVLightObject@gde@@PEAX@std@@@std@@@std@@SAXAEAV?$allocator@U?$_List_node@PEAVLightObject@gde@@PEAX@std@@@1@QEAPEAU?$_List_node@PEAVLightObject@gde@@PEAX@1@@Z
	??$destroy@PEAU?$_List_node@PEAVUpdate@gde@@PEAX@std@@@?$_Default_allocator_traits@V?$allocator@U?$_List_node@PEAVUpdate@gde@@PEAX@std@@@std@@@std@@SAXAEAV?$allocator@U?$_List_node@PEAVUpdate@gde@@PEAX@std@@@1@QEAPEAU?$_List_node@PEAVUpdate@gde@@PEAX@1@@Z
	??$destroy@PEAVActionImplementation_base@input@gde@@@?$_Default_allocator_traits@V?$allocator@U?$_List_node@PEAVActionImplementation_base@input@gde@@PEAX@std@@@std@@@std@@SAXAEAV?$allocator@U?$_List_node@PEAVActionImplementation_base@input@gde@@PEAX@std@@@1@QEAPEAVActionImplementation_base@input@gde@@@Z
	??$destroy@PEAVEarlyUpdate@gde@@@?$_Default_allocator_traits@V?$allocator@U?$_List_node@PEAVEarlyUpdate@gde@@PEAX@std@@@std@@@std@@SAXAEAV?$allocator@U?$_List_node@PEAVEarlyUpdate@gde@@PEAX@std@@@1@QEAPEAVEarlyUpdate@gde@@@Z
	??$destroy@PEAVHandler@gde@@@?$_Default_allocator_traits@V?$allocator@U?$_List_node@PEAVHandler@gde@@PEAX@std@@@std@@@std@@SAXAEAV?$allocator@U?$_List_node@PEAVHandler@gde@@PEAX@std@@@1@QEAPEAVHandler@gde@@@Z
	??$destroy@PEAVInputPlayer@gde@@@?$_Default_allocator_traits@V?$allocator@U?$_List_node@PEAVInputPlayer@gde@@PEAX@std@@@std@@@std@@SAXAEAV?$allocator@U?$_List_node@PEAVInputPlayer@gde@@PEAX@std@@@1@QEAPEAVInputPlayer@gde@@@Z
	??$destroy@PEAVLateUpdate@gde@@@?$_Default_allocator_traits@V?$allocator@U?$_List_node@PEAVLateUpdate@gde@@PEAX@std@@@std@@@std@@SAXAEAV?$allocator@U?$_List_node@PEAVLateUpdate@gde@@PEAX@std@@@1@QEAPEAVLateUpdate@gde@@@Z
	??$destroy@PEAVLightObject@gde@@@?$_Default_allocator_traits@V?$allocator@U?$_List_node@PEAVLightObject@gde@@PEAX@std@@@std@@@std@@SAXAEAV?$allocator@U?$_List_node@PEAVLightObject@gde@@PEAX@std@@@1@QEAPEAVLightObject@gde@@@Z
	??$destroy@PEAVObject@gde@@@?$_Default_allocator_traits@V?$allocator@U?$_List_node@PEAVObject@gde@@PEAX@std@@@std@@@std@@SAXAEAV?$allocator@U?$_List_node@PEAVObject@gde@@PEAX@std@@@1@QEAPEAVObject@gde@@@Z
	??$destroy@PEAVUpdate@gde@@@?$_Default_allocator_traits@V?$allocator@U?$_List_node@PEAVUpdate@gde@@PEAX@std@@@std@@@std@@SAXAEAV?$allocator@U?$_List_node@PEAVUpdate@gde@@PEAX@std@@@1@QEAPEAVUpdate@gde@@@Z
	??$destroy@U?$pair@$$CBV?$basic_string@DU?$char_traits@D@std@@V?$allocator@D@2@@std@@V?$list@PEAVActionImplementation_base@input@gde@@V?$allocator@PEAVActionImplementation_base@input@gde@@@std@@@2@@std@@@?$_Default_allocator_traits@V?$allocator@U?$_List_node@U?$pair@$$CBV?$basic_string@DU?$char_traits@D@std@@V?$allocator@D@2@@std@@V?$list@PEAVActionImplementation_base@input@gde@@V?$allocator@PEAVActionImplementation_base@input@gde@@@std@@@2@@std@@PEAX@std@@@std@@@std@@SAXAEAV?$allocator@U?$_List_node@U?$pair@$$CBV?$basic_string@DU?$char_traits@D@std@@V?$allocator@D@2@@std@@V?$list@PEAVActionImplementation_base@input@gde@@V?$allocator@PEAVActionImplementation_base@input@gde@@@std@@@2@@std@@PEAX@std@@@1@QEAU?$pair@$$CBV?$basic_string@DU?$char_traits@D@std@@V?$allocator@D@2@@std@@V?$list@PEAVActionImplementation_base@input@gde@@V?$allocator@PEAVActionImplementation_base@input@gde@@@std@@@2@@1@@Z
	??$destroy@U?$pair@QEBDUMaterialOverride@rendering@gde@@@std@@@?$_Default_allocator_traits@V?$allocator@U?$_List_node@U?$pair@QEBDUMaterialOverride@rendering@gde@@@std@@PEAX@std@@@std@@@std@@SAXAEAV?$allocator@U?$_List_node@U?$pair@QEBDUMaterialOverride@rendering@gde@@@std@@PEAX@std@@@1@QEAU?$pair@QEBDUMaterialOverride@rendering@gde@@@1@@Z
	??$exchange@PEAU?$_List_node@PEAVActionImplementation_base@input@gde@@PEAX@std@@$$T@std@@YAPEAU?$_List_node@PEAVActionImplementation_base@input@gde@@PEAX@0@AEAPEAU10@$$QEA$$T@Z
	??$exchange@PEAU?$_List_node@PEAVActionImplementation_base@input@gde@@PEAX@std@@AEAPEAU12@@std@@YAPEAU?$_List_node@PEAVActionImplementation_base@input@gde@@PEAX@0@AEAPEAU10@0@Z
	??$exchange@PEAU?$_List_node@PEAVActionImplementation_base@input@gde@@PEAX@std@@PEAU12@@std@@YAPEAU?$_List_node@PEAVActionImplementation_base@input@gde@@PEAX@0@AEAPEAU10@$$QEAPEAU10@@Z
	??$exchange@PEAU?$_List_node@PEAVEarlyUpdate@gde@@PEAX@std@@$$T@std@@YAPEAU?$_List_node@PEAVEarlyUpdate@gde@@PEAX@0@AEAPEAU10@$$QEA$$T@Z
	??$exchange@PEAU?$_List_node@PEAVInputPlayer@gde@@PEAX@std@@$$T@std@@YAPEAU?$_List_node@PEAVInputPlayer@gde@@PEAX@0@AEAPEAU10@$$QEA$$T@Z
	??$exchange@PEAU?$_List_node@PEAVLateUpdate@gde@@PEAX@std@@$$T@std@@YAPEAU?$_List_node@PEAVLateUpdate@gde@@PEAX@0@AEAPEAU10@$$QEA$$T@Z
	??$exchange@PEAU?$_List_node@PEAVLightObject@gde@@PEAX@std@@$$T@std@@YAPEAU?$_List_node@PEAVLightObject@gde@@PEAX@0@AEAPEAU10@$$QEA$$T@Z
	??$exchange@PEAU?$_List_node@PEAVUpdate@gde@@PEAX@std@@$$T@std@@YAPEAU?$_List_node@PEAVUpdate@gde@@PEAX@0@AEAPEAU10@$$QEA$$T@Z
	??$exchange@PEAU?$_List_node@U?$pair@$$CBV?$basic_string@DU?$char_traits@D@std@@V?$allocator@D@2@@std@@V?$list@PEAVActionImplementation_base@input@gde@@V?$allocator@PEAVActionImplementation_base@input@gde@@@std@@@2@@std@@PEAX@std@@$$T@std@@YAPEAU?$_List_node@U?$pair@$$CBV?$basic_string@DU?$char_traits@D@std@@V?$allocator@D@2@@std@@V?$list@PEAVActionImplementation_base@input@gde@@V?$allocator@PEAVActionImplementation_base@input@gde@@@std@@@2@@std@@PEAX@0@AEAPEAU10@$$QEA$$T@Z
	??$exchange@PEAU?$_List_node@U?$pair@QEBDUMaterialOverride@rendering@gde@@@std@@PEAX@std@@$$T@std@@YAPEAU?$_List_node@U?$pair@QEBDUMaterialOverride@rendering@gde@@@std@@PEAX@0@AEAPEAU10@$$QEA$$T@Z
	??$exchange@PEAU_Container_proxy@std@@$$T@std@@YAPEAU_Container_proxy@0@AEAPEAU10@$$QEA$$T@Z
	??$exchange@PEAU_Iterator_base12@std@@$$T@std@@YAPEAU_Iterator_base12@0@AEAPEAU10@$$QEA$$T@Z
	??$exchange@_K_K@std@@YA_KAEA_K$$QEA_K@Z
	??$fill@PEAV?$_List_unchecked_iterator@V?$_List_val@U?$_List_simple_types@U?$pair@$$CBV?$basic_string@DU?$char_traits@D@std@@V?$allocator@D@2@@std@@V?$list@PEAVActionImplementation_base@input@gde@@V?$allocator@PEAVActionImplementation_base@input@gde@@@std@@@2@@std@@@std@@@std@@@std@@V12@@std@@YAXQEAV?$_List_unchecked_iterator@V?$_List_val@U?$_List_simple_types@U?$pair@$$CBV?$basic_string@DU?$char_traits@D@std@@V?$allocator@D@2@@std@@V?$list@PEAVActionImplementation_base@input@gde@@V?$allocator@PEAVActionImplementation_base@input@gde@@@std@@@2@@std@@@std@@@std@@@0@0AEBV10@@Z
	??$fill@PEAV?$_List_unchecked_iterator@V?$_List_val@U?$_List_simple_types@U?$pair@QEBDUMaterialOverride@rendering@gde@@@std@@@std@@@std@@@std@@V12@@std@@YAXQEAV?$_List_unchecked_iterator@V?$_List_val@U?$_List_simple_types@U?$pair@QEBDUMaterialOverride@rendering@gde@@@std@@@std@@@std@@@0@0AEBV10@@Z
	??$find@X@?$_Hash@V?$_Umap_traits@V?$basic_string@DU?$char_traits@D@std@@V?$allocator@D@2@@std@@V?$list@PEAVActionImplementation_base@input@gde@@V?$allocator@PEAVActionImplementation_base@input@gde@@@std@@@2@V?$_Uhash_compare@V?$basic_string@DU?$char_traits@D@std@@V?$allocator@D@2@@std@@U?$hash@V?$basic_string@DU?$char_traits@D@std@@V?$allocator@D@2@@std@@@2@U?$equal_to@V?$basic_string@DU?$char_traits@D@std@@V?$allocator@D@2@@std@@@2@@2@V?$allocator@U?$pair@$$CBV?$basic_string@DU?$char_traits@D@std@@V?$allocator@D@2@@std@@V?$list@PEAVActionImplementation_base@input@gde@@V?$allocator@PEAVActionImplementation_base@input@gde@@@std@@@2@@std@@@2@$0A@@std@@@std@@QEAA?AV?$_List_iterator@V?$_List_val@U?$_List_simple_types@U?$pair@$$CBV?$basic_string@DU?$char_traits@D@std@@V?$allocator@D@2@@std@@V?$list@PEAVActionImplementation_base@input@gde@@V?$allocator@PEAVActionImplementation_base@input@gde@@@std@@@2@@std@@@std@@@std@@@1@AEBV?$basic_string@DU?$char_traits@D@std@@V?$allocator@D@2@@1@@Z
	??$forward@AEAPEAD@std@@YAAEAPEADAEAPEAD@Z
	??$forward@AEAPEAU?$_List_node@PEAVActionImplementation_base@input@gde@@PEAX@std@@@std@@YAAEAPEAU?$_List_node@PEAVActionImplementation_base@input@gde@@PEAX@0@AEAPEAU10@@Z
	??$forward@AEAPEAU?$_List_node@PEAVEarlyUpdate@gde@@PEAX@std@@@std@@YAAEAPEAU?$_List_node@PEAVEarlyUpdate@gde@@PEAX@0@AEAPEAU10@@Z
	??$forward@AEAPEAU?$_List_node@PEAVHandler@gde@@PEAX@std@@@std@@YAAEAPEAU?$_List_node@PEAVHandler@gde@@PEAX@0@AEAPEAU10@@Z
	??$forward@AEAPEAU?$_List_node@PEAVInputPlayer@gde@@PEAX@std@@@std@@YAAEAPEAU?$_List_node@PEAVInputPlayer@gde@@PEAX@0@AEAPEAU10@@Z
	??$forward@AEAPEAU?$_List_node@PEAVLateUpdate@gde@@PEAX@std@@@std@@YAAEAPEAU?$_List_node@PEAVLateUpdate@gde@@PEAX@0@AEAPEAU10@@Z
	??$forward@AEAPEAU?$_List_node@PEAVLightObject@gde@@PEAX@std@@@std@@YAAEAPEAU?$_List_node@PEAVLightObject@gde@@PEAX@0@AEAPEAU10@@Z
	??$forward@AEAPEAU?$_List_node@PEAVObject@gde@@PEAX@std@@@std@@YAAEAPEAU?$_List_node@PEAVObject@gde@@PEAX@0@AEAPEAU10@@Z
	??$forward@AEAPEAU?$_List_node@PEAVUpdate@gde@@PEAX@std@@@std@@YAAEAPEAU?$_List_node@PEAVUpdate@gde@@PEAX@0@AEAPEAU10@@Z
	??$forward@AEAPEAU?$_List_node@U?$pair@$$CBV?$basic_string@DU?$char_traits@D@std@@V?$allocator@D@2@@std@@V?$list@PEAVActionImplementation_base@input@gde@@V?$allocator@PEAVActionImplementation_base@input@gde@@@std@@@2@@std@@PEAX@std@@@std@@YAAEAPEAU?$_List_node@U?$pair@$$CBV?$basic_string@DU?$char_traits@D@std@@V?$allocator@D@2@@std@@V?$list@PEAVActionImplementation_base@input@gde@@V?$allocator@PEAVActionImplementation_base@input@gde@@@std@@@2@@std@@PEAX@0@AEAPEAU10@@Z
	??$forward@AEAPEAVDrawCall@rendering@gde@@@std@@YAAEAPEAVDrawCall@rendering@gde@@AEAPEAV123@@Z
	??$forward@AEAUMaterialOverride@rendering@gde@@@std@@YAAEAUMaterialOverride@rendering@gde@@AEAU123@@Z
	??$forward@AEBQEAD@std@@YAAEBQEADAEBQEAD@Z
	??$forward@AEBQEAPEAVDrawCall@rendering@gde@@@std@@YAAEBQEAPEAVDrawCall@rendering@gde@@AEBQEAPEAV123@@Z
	??$forward@AEBQEAU?$_List_node@PEAVActionImplementation_base@input@gde@@PEAX@std@@@std@@YAAEBQEAU?$_List_node@PEAVActionImplementation_base@input@gde@@PEAX@0@AEBQEAU10@@Z
	??$forward@AEBQEAU?$_List_node@PEAVEarlyUpdate@gde@@PEAX@std@@@std@@YAAEBQEAU?$_List_node@PEAVEarlyUpdate@gde@@PEAX@0@AEBQEAU10@@Z
	??$forward@AEBQEAU?$_List_node@PEAVInputPlayer@gde@@PEAX@std@@@std@@YAAEBQEAU?$_List_node@PEAVInputPlayer@gde@@PEAX@0@AEBQEAU10@@Z
	??$forward@AEBQEAU?$_List_node@PEAVLateUpdate@gde@@PEAX@std@@@std@@YAAEBQEAU?$_List_node@PEAVLateUpdate@gde@@PEAX@0@AEBQEAU10@@Z
	??$forward@AEBQEAU?$_List_node@PEAVLightObject@gde@@PEAX@std@@@std@@YAAEBQEAU?$_List_node@PEAVLightObject@gde@@PEAX@0@AEBQEAU10@@Z
	??$forward@AEBQEAU?$_List_node@PEAVObject@gde@@PEAX@std@@@std@@YAAEBQEAU?$_List_node@PEAVObject@gde@@PEAX@0@AEBQEAU10@@Z
	??$forward@AEBQEAU?$_List_node@PEAVUpdate@gde@@PEAX@std@@@std@@YAAEBQEAU?$_List_node@PEAVUpdate@gde@@PEAX@0@AEBQEAU10@@Z
	??$forward@AEBQEAU?$_List_node@U?$pair@$$CBV?$basic_string@DU?$char_traits@D@std@@V?$allocator@D@2@@std@@V?$list@PEAVActionImplementation_base@input@gde@@V?$allocator@PEAVActionImplementation_base@input@gde@@@std@@@2@@std@@PEAX@std@@@std@@YAAEBQEAU?$_List_node@U?$pair@$$CBV?$basic_string@DU?$char_traits@D@std@@V?$allocator@D@2@@std@@V?$list@PEAVActionImplementation_base@input@gde@@V?$allocator@PEAVActionImplementation_base@input@gde@@@std@@@2@@std@@PEAX@0@AEBQEAU10@@Z
	??$forward@AEBQEAU?$_List_node@U?$pair@QEBDUMaterialOverride@rendering@gde@@@std@@PEAX@std@@@std@@YAAEBQEAU?$_List_node@U?$pair@QEBDUMaterialOverride@rendering@gde@@@std@@PEAX@0@AEBQEAU10@@Z
	??$forward@AEBQEAVActionImplementation_base@input@gde@@@std@@YAAEBQEAVActionImplementation_base@input@gde@@AEBQEAV123@@Z
	??$forward@AEBQEAVDrawCall@rendering@gde@@@std@@YAAEBQEAVDrawCall@rendering@gde@@AEBQEAV123@@Z
	??$forward@AEBQEAVEarlyUpdate@gde@@@std@@YAAEBQEAVEarlyUpdate@gde@@AEBQEAV12@@Z
	??$forward@AEBQEAVInputPlayer@gde@@@std@@YAAEBQEAVInputPlayer@gde@@AEBQEAV12@@Z
	??$forward@AEBQEAVLateUpdate@gde@@@std@@YAAEBQEAVLateUpdate@gde@@AEBQEAV12@@Z
	??$forward@AEBQEAVLightObject@gde@@@std@@YAAEBQEAVLightObject@gde@@AEBQEAV12@@Z
	??$forward@AEBQEAVObject@gde@@@std@@YAAEBQEAVObject@gde@@AEBQEAV12@@Z
	??$forward@AEBQEAVUpdate@gde@@@std@@YAAEBQEAVUpdate@gde@@AEBQEAV12@@Z
	??$forward@AEBQEBD@std@@YAAEBQEBDAEBQEBD@Z
	??$forward@AEBUMaterialTexture@rendering@gde@@@std@@YAAEBUMaterialTexture@rendering@gde@@AEBU123@@Z
	??$forward@AEBUpiecewise_construct_t@std@@@std@@YAAEBUpiecewise_construct_t@0@AEBU10@@Z
	??$forward@AEBV?$_List_unchecked_iterator@V?$_List_val@U?$_List_simple_types@U?$pair@$$CBV?$basic_string@DU?$char_traits@D@std@@V?$allocator@D@2@@std@@V?$list@PEAVActionImplementation_base@input@gde@@V?$allocator@PEAVActionImplementation_base@input@gde@@@std@@@2@@std@@@std@@@std@@@std@@@std@@YAAEBV?$_List_unchecked_iterator@V?$_List_val@U?$_List_simple_types@U?$pair@$$CBV?$basic_string@DU?$char_traits@D@std@@V?$allocator@D@2@@std@@V?$list@PEAVActionImplementation_base@input@gde@@V?$allocator@PEAVActionImplementation_base@input@gde@@@std@@@2@@std@@@std@@@std@@@0@AEBV10@@Z
	??$forward@AEBV?$_List_unchecked_iterator@V?$_List_val@U?$_List_simple_types@U?$pair@QEBDUMaterialOverride@rendering@gde@@@std@@@std@@@std@@@std@@@std@@YAAEBV?$_List_unchecked_iterator@V?$_List_val@U?$_List_simple_types@U?$pair@QEBDUMaterialOverride@rendering@gde@@@std@@@std@@@std@@@0@AEBV10@@Z
	??$forward@AEBV?$allocator@PEAVDrawCall@rendering@gde@@@std@@@std@@YAAEBV?$allocator@PEAVDrawCall@rendering@gde@@@0@AEBV10@@Z
	??$forward@AEBV?$allocator@U?$pair@$$CBV?$basic_string@DU?$char_traits@D@std@@V?$allocator@D@2@@std@@V?$list@PEAVActionImplementation_base@input@gde@@V?$allocator@PEAVActionImplementation_base@input@gde@@@std@@@2@@std@@@std@@@std@@YAAEBV?$allocator@U?$pair@$$CBV?$basic_string@DU?$char_traits@D@std@@V?$allocator@D@2@@std@@V?$list@PEAVActionImplementation_base@input@gde@@V?$allocator@PEAVActionImplementation_base@input@gde@@@std@@@2@@std@@@0@AEBV10@@Z
	??$forward@AEBV?$basic_string@DU?$char_traits@D@std@@V?$allocator@D@2@@std@@@std@@YAAEBV?$basic_string@DU?$char_traits@D@std@@V?$allocator@D@2@@0@AEBV10@@Z
	??$forward@M@std@@YA$$QEAMAEAM@Z
	??$forward@N@std@@YA$$QEANAEAN@Z
	??$forward@PEAU?$_List_node@PEAVActionImplementation_base@input@gde@@PEAX@std@@@std@@YA$$QEAPEAU?$_List_node@PEAVActionImplementation_base@input@gde@@PEAX@0@AEAPEAU10@@Z
	??$forward@PEAU?$_List_node@U?$pair@$$CBV?$basic_string@DU?$char_traits@D@std@@V?$allocator@D@2@@std@@V?$list@PEAVActionImplementation_base@input@gde@@V?$allocator@PEAVActionImplementation_base@input@gde@@@std@@@2@@std@@PEAX@std@@@std@@YA$$QEAPEAU?$_List_node@U?$pair@$$CBV?$basic_string@DU?$char_traits@D@std@@V?$allocator@D@2@@std@@V?$list@PEAVActionImplementation_base@input@gde@@V?$allocator@PEAVActionImplementation_base@input@gde@@@std@@@2@@std@@PEAX@0@AEAPEAU10@@Z
	??$forward@PEAUInputAction@input@gde@@@std@@YA$$QEAPEAUInputAction@input@gde@@AEAPEAU123@@Z
	??$forward@PEAU_Container_base12@std@@@std@@YA$$QEAPEAU_Container_base12@0@AEAPEAU10@@Z
	??$forward@PEAVInputCustomer_base@gde@@@std@@YA$$QEAPEAVInputCustomer_base@gde@@AEAPEAV12@@Z
	??$forward@PEAVObject@gde@@@std@@YA$$QEAPEAVObject@gde@@AEAPEAV12@@Z
	??$forward@PEBQEAVDrawCall@rendering@gde@@@std@@YA$$QEAPEBQEAVDrawCall@rendering@gde@@AEAPEBQEAV123@@Z
	??$forward@UMaterialTexture@rendering@gde@@@std@@YA$$QEAUMaterialTexture@rendering@gde@@AEAU123@@Z
	??$forward@U_Zero_then_variadic_args_t@std@@@std@@YA$$QEAU_Zero_then_variadic_args_t@0@AEAU10@@Z
	??$forward@V?$_List_iterator@V?$_List_val@U?$_List_simple_types@U?$pair@$$CBV?$basic_string@DU?$char_traits@D@std@@V?$allocator@D@2@@std@@V?$list@PEAVActionImplementation_base@input@gde@@V?$allocator@PEAVActionImplementation_base@input@gde@@@std@@@2@@std@@@std@@@std@@@std@@@std@@YA$$QEAV?$_List_iterator@V?$_List_val@U?$_List_simple_types@U?$pair@$$CBV?$basic_string@DU?$char_traits@D@std@@V?$allocator@D@2@@std@@V?$list@PEAVActionImplementation_base@input@gde@@V?$allocator@PEAVActionImplementation_base@input@gde@@@std@@@2@@std@@@std@@@std@@@0@AEAV10@@Z
	??$forward@V?$_List_iterator@V?$_List_val@U?$_List_simple_types@U?$pair@QEBDUMaterialOverride@rendering@gde@@@std@@@std@@@std@@@std@@@std@@YA$$QEAV?$_List_iterator@V?$_List_val@U?$_List_simple_types@U?$pair@QEBDUMaterialOverride@rendering@gde@@@std@@@std@@@std@@@0@AEAV10@@Z
	??$forward@V?$allocator@D@std@@@std@@YA$$QEAV?$allocator@D@0@AEAV10@@Z
	??$forward@V?$allocator@PEAVDrawCall@rendering@gde@@@std@@@std@@YA$$QEAV?$allocator@PEAVDrawCall@rendering@gde@@@0@AEAV10@@Z
	??$forward@V?$allocator@U?$_List_node@PEAVActionImplementation_base@input@gde@@PEAX@std@@@std@@@std@@YA$$QEAV?$allocator@U?$_List_node@PEAVActionImplementation_base@input@gde@@PEAX@std@@@0@AEAV10@@Z
	??$forward@V?$basic_string@DU?$char_traits@D@std@@V?$allocator@D@2@@std@@@std@@YA$$QEAV?$basic_string@DU?$char_traits@D@std@@V?$allocator@D@2@@0@AEAV10@@Z
	??$forward@V?$list@PEAVActionImplementation_base@input@gde@@V?$allocator@PEAVActionImplementation_base@input@gde@@@std@@@std@@@std@@YA$$QEAV?$list@PEAVActionImplementation_base@input@gde@@V?$allocator@PEAVActionImplementation_base@input@gde@@@std@@@0@AEAV10@@Z
	??$forward@V?$tuple@$$V@std@@@std@@YA$$QEAV?$tuple@$$V@0@AEAV10@@Z
	??$forward@V?$tuple@AEBV?$basic_string@DU?$char_traits@D@std@@V?$allocator@D@2@@std@@@std@@@std@@YA$$QEAV?$tuple@AEBV?$basic_string@DU?$char_traits@D@std@@V?$allocator@D@2@@std@@@0@AEAV10@@Z
	??$forward@_N@std@@YA$$QEA_NAEA_N@Z
	??$forward_as_tuple@$$V@std@@YA?AV?$tuple@$$V@0@XZ
	??$forward_as_tuple@AEBV?$basic_string@DU?$char_traits@D@std@@V?$allocator@D@2@@std@@@std@@YA?AV?$tuple@AEBV?$basic_string@DU?$char_traits@D@std@@V?$allocator@D@2@@std@@@0@AEBV?$basic_string@DU?$char_traits@D@std@@V?$allocator@D@2@@0@@Z
	??$insert_or_assign@AEAUMaterialOverride@rendering@gde@@@?$unordered_map@PEBDUMaterialOverride@rendering@gde@@U?$hash@PEBD@std@@U?$equal_to@PEBD@5@V?$allocator@U?$pair@QEBDUMaterialOverride@rendering@gde@@@std@@@5@@std@@QEAA?AU?$pair@V?$_List_iterator@V?$_List_val@U?$_List_simple_types@U?$pair@QEBDUMaterialOverride@rendering@gde@@@std@@@std@@@std@@@std@@_N@1@AEBQEBDAEAUMaterialOverride@rendering@gde@@@Z
	??$insert_or_assign@V?$list@PEAVActionImplementation_base@input@gde@@V?$allocator@PEAVActionImplementation_base@input@gde@@@std@@@std@@@?$unordered_map@V?$basic_string@DU?$char_traits@D@std@@V?$allocator@D@2@@std@@V?$list@PEAVActionImplementation_base@input@gde@@V?$allocator@PEAVActionImplementation_base@input@gde@@@std@@@2@U?$hash@V?$basic_string@DU?$char_traits@D@std@@V?$allocator@D@2@@std@@@2@U?$equal_to@V?$basic_string@DU?$char_traits@D@std@@V?$allocator@D@2@@std@@@2@V?$allocator@U?$pair@$$CBV?$basic_string@DU?$char_traits@D@std@@V?$allocator@D@2@@std@@V?$list@PEAVActionImplementation_base@input@gde@@V?$allocator@PEAVActionImplementation_base@input@gde@@@std@@@2@@std@@@2@@std@@QEAA?AU?$pair@V?$_List_iterator@V?$_List_val@U?$_List_simple_types@U?$pair@$$CBV?$basic_string@DU?$char_traits@D@std@@V?$allocator@D@2@@std@@V?$list@PEAVActionImplementation_base@input@gde@@V?$allocator@PEAVActionImplementation_base@input@gde@@@std@@@2@@std@@@std@@@std@@@std@@_N@1@AEBV?$basic_string@DU?$char_traits@D@std@@V?$allocator@D@2@@1@$$QEAV?$list@PEAVActionImplementation_base@input@gde@@V?$allocator@PEAVActionImplementation_base@input@gde@@@std@@@1@@Z
	??$max@_K@std@@YAAEB_KAEB_K0@Z
	??$min@_K@std@@YAAEB_KAEB_K0@Z
	??$move@AEAPEAPEAVDrawCall@rendering@gde@@@std@@YA$$QEAPEAPEAVDrawCall@rendering@gde@@AEAPEAPEAV123@@Z
	??$move@AEAPEAU?$_List_node@PEAVActionImplementation_base@input@gde@@PEAX@std@@@std@@YA$$QEAPEAU?$_List_node@PEAVActionImplementation_base@input@gde@@PEAX@0@AEAPEAU10@@Z
	??$move@AEAPEBQEAVDrawCall@rendering@gde@@@std@@YA$$QEAPEBQEAVDrawCall@rendering@gde@@AEAPEBQEAV123@@Z
	??$move@AEAUMaterialTexture@rendering@gde@@@std@@YA$$QEAUMaterialTexture@rendering@gde@@AEAU123@@Z
	??$move@AEAV?$_List_unchecked_const_iterator@V?$_List_val@U?$_List_simple_types@PEAVActionImplementation_base@input@gde@@@std@@@std@@U_Iterator_base0@2@@std@@@std@@YA$$QEAV?$_List_unchecked_const_iterator@V?$_List_val@U?$_List_simple_types@PEAVActionImplementation_base@input@gde@@@std@@@std@@U_Iterator_base0@2@@0@AEAV10@@Z
	??$move@AEAV?$allocator@D@std@@@std@@YA$$QEAV?$allocator@D@0@AEAV10@@Z
	??$move@AEAV?$allocator@U?$_List_node@PEAVActionImplementation_base@input@gde@@PEAX@std@@@std@@@std@@YA$$QEAV?$allocator@U?$_List_node@PEAVActionImplementation_base@input@gde@@PEAX@std@@@0@AEAV10@@Z
	??$move@AEAV?$tuple@AEBV?$basic_string@DU?$char_traits@D@std@@V?$allocator@D@2@@std@@@std@@@std@@YA$$QEAV?$tuple@AEBV?$basic_string@DU?$char_traits@D@std@@V?$allocator@D@2@@std@@@0@AEAV10@@Z
	??$move@AEA_K@std@@YA$$QEA_KAEA_K@Z
	??$remove_if@V<lambda_35591935129e6c8f683ddcbb36bea7fb>@@@?$list@PEAVInputPlayer@gde@@V?$allocator@PEAVInputPlayer@gde@@@std@@@std@@QEAA?A_PV<lambda_35591935129e6c8f683ddcbb36bea7fb>@@@Z
	??$remove_if@V<lambda_4be23e8135c89c0558ad68b1498fdb66>@@@?$list@PEAVLightObject@gde@@V?$allocator@PEAVLightObject@gde@@@std@@@std@@QEAA?A_PV<lambda_4be23e8135c89c0558ad68b1498fdb66>@@@Z
	??$remove_if@V<lambda_71e78480163e419e7ab0aadcba209a68>@@@?$list@PEAVUpdate@gde@@V?$allocator@PEAVUpdate@gde@@@std@@@std@@QEAA?A_PV<lambda_71e78480163e419e7ab0aadcba209a68>@@@Z
	??$remove_if@V<lambda_a9807e7f65a47d71b0bd15aaf12f24f3>@@@?$list@PEAVEarlyUpdate@gde@@V?$allocator@PEAVEarlyUpdate@gde@@@std@@@std@@QEAA?A_PV<lambda_a9807e7f65a47d71b0bd15aaf12f24f3>@@@Z
	??$remove_if@V<lambda_e4f7fdb38b58cad4a1a3e1469fa590a6>@@@?$list@PEAVLateUpdate@gde@@V?$allocator@PEAVLateUpdate@gde@@@std@@@std@@QEAA?A_PV<lambda_e4f7fdb38b58cad4a1a3e1469fa590a6>@@@Z
	??$setOverride@M@Material@rendering@gde@@QEAAXPEBDM@Z
	??$setOverride@U?$vec@$02M$0A@@glm@@@Material@rendering@gde@@QEAAXPEBDU?$vec@$02M$0A@@glm@@@Z
	??$setOverride@_N@Material@rendering@gde@@QEAAXPEBD_N@Z
	??$swap@PEAU?$_List_node@PEAVActionImplementation_base@input@gde@@PEAX@std@@$0A@@std@@YAXAEAPEAU?$_List_node@PEAVActionImplementation_base@input@gde@@PEAX@0@0@Z
	??$swap@_K$0A@@std@@YAXAEA_K0@Z
	??$uninitialized_fill@PEAV?$_List_unchecked_iterator@V?$_List_val@U?$_List_simple_types@U?$pair@$$CBV?$basic_string@DU?$char_traits@D@std@@V?$allocator@D@2@@std@@V?$list@PEAVActionImplementation_base@input@gde@@V?$allocator@PEAVActionImplementation_base@input@gde@@@std@@@2@@std@@@std@@@std@@@std@@V12@@std@@YAXQEAV?$_List_unchecked_iterator@V?$_List_val@U?$_List_simple_types@U?$pair@$$CBV?$basic_string@DU?$char_traits@D@std@@V?$allocator@D@2@@std@@V?$list@PEAVActionImplementation_base@input@gde@@V?$allocator@PEAVActionImplementation_base@input@gde@@@std@@@2@@std@@@std@@@std@@@0@0AEBV10@@Z
	??$uninitialized_fill@PEAV?$_List_unchecked_iterator@V?$_List_val@U?$_List_simple_types@U?$pair@QEBDUMaterialOverride@rendering@gde@@@std@@@std@@@std@@@std@@V12@@std@@YAXQEAV?$_List_unchecked_iterator@V?$_List_val@U?$_List_simple_types@U?$pair@QEBDUMaterialOverride@rendering@gde@@@std@@@std@@@std@@@0@0AEBV10@@Z
	??$value_ptr@M$0A@@glm@@YAPEAMAEAU?$vec@$03M$0A@@0@@Z
	??0<lambda_35591935129e6c8f683ddcbb36bea7fb>@@QEAA@AEBQEAVObject@gde@@@Z
	??0<lambda_4be23e8135c89c0558ad68b1498fdb66>@@QEAA@AEBQEAVObject@gde@@@Z
	??0<lambda_71e78480163e419e7ab0aadcba209a68>@@QEAA@AEBQEAVObject@gde@@@Z
	??0<lambda_a9807e7f65a47d71b0bd15aaf12f24f3>@@QEAA@AEBQEAVObject@gde@@@Z
	??0<lambda_e4f7fdb38b58cad4a1a3e1469fa590a6>@@QEAA@AEBQEAVObject@gde@@@Z
	??0?$ActionImplementation@U?$KeyPress@$0A@@input@gde@@@input@gde@@QEAA@XZ
	??0?$ActionImplementation@U?$MouseDrag@$00@input@gde@@@input@gde@@QEAA@XZ
	??0?$ActionImplementation@U?$MouseDrag@$01@input@gde@@@input@gde@@QEAA@XZ
	??0?$ActionImplementation@UMouseScroll@input@gde@@@input@gde@@QEAA@XZ
	??0?$KeyPress@$0A@@input@gde@@QEAA@AEBU012@@Z
	??0?$KeyPress@$0A@@input@gde@@QEAA@XZ
	??0?$KeyPressImplementation@$0A@@input@gde@@QEAA@XZ
	??0?$MouseDrag@$00@input@gde@@QEAA@AEBU012@@Z
	??0?$MouseDrag@$00@input@gde@@QEAA@XZ
	??0?$MouseDrag@$01@input@gde@@QEAA@AEBU012@@Z
	??0?$MouseDrag@$01@input@gde@@QEAA@XZ
	??0?$MouseDragImplementation@$00@input@gde@@QEAA@XZ
	??0?$MouseDragImplementation@$01@input@gde@@QEAA@XZ
	??0?$ObjectHandler@VEarlyUpdate@gde@@@gde@@QEAA@XZ
	??0?$ObjectHandler@VInputPlayer@gde@@@gde@@QEAA@XZ
	??0?$ObjectHandler@VLateUpdate@gde@@@gde@@QEAA@XZ
	??0?$ObjectHandler@VLightObject@gde@@@gde@@QEAA@XZ
	??0?$ObjectHandler@VUpdate@gde@@@gde@@QEAA@XZ
	??0?$_Alloc_construct_ptr@V?$allocator@U?$_List_node@PEAVActionImplementation_base@input@gde@@PEAX@std@@@std@@@std@@QEAA@AEAV?$allocator@U?$_List_node@PEAVActionImplementation_base@input@gde@@PEAX@std@@@1@@Z
	??0?$_Alloc_construct_ptr@V?$allocator@U?$_List_node@PEAVEarlyUpdate@gde@@PEAX@std@@@std@@@std@@QEAA@AEAV?$allocator@U?$_List_node@PEAVEarlyUpdate@gde@@PEAX@std@@@1@@Z
	??0?$_Alloc_construct_ptr@V?$allocator@U?$_List_node@PEAVInputPlayer@gde@@PEAX@std@@@std@@@std@@QEAA@AEAV?$allocator@U?$_List_node@PEAVInputPlayer@gde@@PEAX@std@@@1@@Z
	??0?$_Alloc_construct_ptr@V?$allocator@U?$_List_node@PEAVLateUpdate@gde@@PEAX@std@@@std@@@std@@QEAA@AEAV?$allocator@U?$_List_node@PEAVLateUpdate@gde@@PEAX@std@@@1@@Z
	??0?$_Alloc_construct_ptr@V?$allocator@U?$_List_node@PEAVLightObject@gde@@PEAX@std@@@std@@@std@@QEAA@AEAV?$allocator@U?$_List_node@PEAVLightObject@gde@@PEAX@std@@@1@@Z
	??0?$_Alloc_construct_ptr@V?$allocator@U?$_List_node@PEAVObject@gde@@PEAX@std@@@std@@@std@@QEAA@AEAV?$allocator@U?$_List_node@PEAVObject@gde@@PEAX@std@@@1@@Z
	??0?$_Alloc_construct_ptr@V?$allocator@U?$_List_node@PEAVUpdate@gde@@PEAX@std@@@std@@@std@@QEAA@AEAV?$allocator@U?$_List_node@PEAVUpdate@gde@@PEAX@std@@@1@@Z
	??0?$_Alloc_construct_ptr@V?$allocator@U?$_List_node@U?$pair@$$CBV?$basic_string@DU?$char_traits@D@std@@V?$allocator@D@2@@std@@V?$list@PEAVActionImplementation_base@input@gde@@V?$allocator@PEAVActionImplementation_base@input@gde@@@std@@@2@@std@@PEAX@std@@@std@@@std@@QEAA@AEAV?$allocator@U?$_List_node@U?$pair@$$CBV?$basic_string@DU?$char_traits@D@std@@V?$allocator@D@2@@std@@V?$list@PEAVActionImplementation_base@input@gde@@V?$allocator@PEAVActionImplementation_base@input@gde@@@std@@@2@@std@@PEAX@std@@@1@@Z
	??0?$_Alloc_construct_ptr@V?$allocator@U?$_List_node@U?$pair@QEBDUMaterialOverride@rendering@gde@@@std@@PEAX@std@@@std@@@std@@QEAA@AEAV?$allocator@U?$_List_node@U?$pair@QEBDUMaterialOverride@rendering@gde@@@std@@PEAX@std@@@1@@Z
	??0?$_Container_proxy_ptr12@V?$allocator@U_Container_proxy@std@@@std@@@std@@QEAA@AEAV?$allocator@U_Container_proxy@std@@@1@AEAU_Container_base12@1@@Z
	??0?$_Func_base@XN@std@@QEAA@XZ
	??0?$_Func_base@XPEAVInputCustomer_base@gde@@@std@@QEAA@XZ
	??0?$_Func_base@XPEAVObject@gde@@@std@@QEAA@XZ
	??0?$_Func_base@XV?$basic_string@DU?$char_traits@D@std@@V?$allocator@D@2@@std@@PEAUInputAction@input@gde@@_N@std@@QEAA@XZ
	??0?$_Func_class@XN@std@@QEAA@XZ
	??0?$_Func_class@XPEAVInputCustomer_base@gde@@@std@@QEAA@XZ
	??0?$_Func_class@XPEAVObject@gde@@@std@@QEAA@XZ
	??0?$_Func_class@XV?$basic_string@DU?$char_traits@D@std@@V?$allocator@D@2@@std@@PEAUInputAction@input@gde@@_N@std@@QEAA@XZ
	??0?$_Hash@V?$_Umap_traits@V?$basic_string@DU?$char_traits@D@std@@V?$allocator@D@2@@std@@V?$list@PEAVActionImplementation_base@input@gde@@V?$allocator@PEAVActionImplementation_base@input@gde@@@std@@@2@V?$_Uhash_compare@V?$basic_string@DU?$char_traits@D@std@@V?$allocator@D@2@@std@@U?$hash@V?$basic_string@DU?$char_traits@D@std@@V?$allocator@D@2@@std@@@2@U?$equal_to@V?$basic_string@DU?$char_traits@D@std@@V?$allocator@D@2@@std@@@2@@2@V?$allocator@U?$pair@$$CBV?$basic_string@DU?$char_traits@D@std@@V?$allocator@D@2@@std@@V?$list@PEAVActionImplementation_base@input@gde@@V?$allocator@PEAVActionImplementation_base@input@gde@@@std@@@2@@std@@@2@$0A@@std@@@std@@IEAA@AEBV?$_Uhash_compare@V?$basic_string@DU?$char_traits@D@std@@V?$allocator@D@2@@std@@U?$hash@V?$basic_string@DU?$char_traits@D@std@@V?$allocator@D@2@@std@@@2@U?$equal_to@V?$basic_string@DU?$char_traits@D@std@@V?$allocator@D@2@@std@@@2@@1@AEBV?$allocator@U?$pair@$$CBV?$basic_string@DU?$char_traits@D@std@@V?$allocator@D@2@@std@@V?$list@PEAVActionImplementation_base@input@gde@@V?$allocator@PEAVActionImplementation_base@input@gde@@@std@@@2@@std@@@1@@Z
	??0?$_List_const_iterator@V?$_List_val@U?$_List_simple_types@U?$pair@$$CBV?$basic_string@DU?$char_traits@D@std@@V?$allocator@D@2@@std@@V?$list@PEAVActionImplementation_base@input@gde@@V?$allocator@PEAVActionImplementation_base@input@gde@@@std@@@2@@std@@@std@@@std@@@std@@QEAA@$$QEAV01@@Z
	??0?$_List_const_iterator@V?$_List_val@U?$_List_simple_types@U?$pair@$$CBV?$basic_string@DU?$char_traits@D@std@@V?$allocator@D@2@@std@@V?$list@PEAVActionImplementation_base@input@gde@@V?$allocator@PEAVActionImplementation_base@input@gde@@@std@@@2@@std@@@std@@@std@@@std@@QEAA@PEAU?$_List_node@U?$pair@$$CBV?$basic_string@DU?$char_traits@D@std@@V?$allocator@D@2@@std@@V?$list@PEAVActionImplementation_base@input@gde@@V?$allocator@PEAVActionImplementation_base@input@gde@@@std@@@2@@std@@PEAX@1@PEBV?$_List_val@U?$_List_simple_types@U?$pair@$$CBV?$basic_string@DU?$char_traits@D@std@@V?$allocator@D@2@@std@@V?$list@PEAVActionImplementation_base@input@gde@@V?$allocator@PEAVActionImplementation_base@input@gde@@@std@@@2@@std@@@std@@@1@@Z
	??0?$_List_const_iterator@V?$_List_val@U?$_List_simple_types@U?$pair@QEBDUMaterialOverride@rendering@gde@@@std@@@std@@@std@@@std@@QEAA@$$QEAV01@@Z
	??0?$_List_const_iterator@V?$_List_val@U?$_List_simple_types@U?$pair@QEBDUMaterialOverride@rendering@gde@@@std@@@std@@@std@@@std@@QEAA@PEAU?$_List_node@U?$pair@QEBDUMaterialOverride@rendering@gde@@@std@@PEAX@1@PEBV?$_List_val@U?$_List_simple_types@U?$pair@QEBDUMaterialOverride@rendering@gde@@@std@@@std@@@1@@Z
	??0?$_List_iterator@V?$_List_val@U?$_List_simple_types@U?$pair@$$CBV?$basic_string@DU?$char_traits@D@std@@V?$allocator@D@2@@std@@V?$list@PEAVActionImplementation_base@input@gde@@V?$allocator@PEAVActionImplementation_base@input@gde@@@std@@@2@@std@@@std@@@std@@@std@@QEAA@$$QEAV01@@Z
	??0?$_List_iterator@V?$_List_val@U?$_List_simple_types@U?$pair@$$CBV?$basic_string@DU?$char_traits@D@std@@V?$allocator@D@2@@std@@V?$list@PEAVActionImplementation_base@input@gde@@V?$allocator@PEAVActionImplementation_base@input@gde@@@std@@@2@@std@@@std@@@std@@@std@@QEAA@PEAU?$_List_node@U?$pair@$$CBV?$basic_string@DU?$char_traits@D@std@@V?$allocator@D@2@@std@@V?$list@PEAVActionImplementation_base@input@gde@@V?$allocator@PEAVActionImplementation_base@input@gde@@@std@@@2@@std@@PEAX@1@PEBV?$_List_val@U?$_List_simple_types@U?$pair@$$CBV?$basic_string@DU?$char_traits@D@std@@V?$allocator@D@2@@std@@V?$list@PEAVActionImplementation_base@input@gde@@V?$allocator@PEAVActionImplementation_base@input@gde@@@std@@@2@@std@@@std@@@1@@Z
	??0?$_List_iterator@V?$_List_val@U?$_List_simple_types@U?$pair@QEBDUMaterialOverride@rendering@gde@@@std@@@std@@@std@@@std@@QEAA@$$QEAV01@@Z
	??0?$_List_iterator@V?$_List_val@U?$_List_simple_types@U?$pair@QEBDUMaterialOverride@rendering@gde@@@std@@@std@@@std@@@std@@QEAA@PEAU?$_List_node@U?$pair@QEBDUMaterialOverride@rendering@gde@@@std@@PEAX@1@PEBV?$_List_val@U?$_List_simple_types@U?$pair@QEBDUMaterialOverride@rendering@gde@@@std@@@std@@@1@@Z
	??0?$_List_node_insert_op2@V?$allocator@U?$_List_node@PEAVActionImplementation_base@input@gde@@PEAX@std@@@std@@@std@@QEAA@AEAV?$allocator@U?$_List_node@PEAVActionImplementation_base@input@gde@@PEAX@std@@@1@@Z
	??0?$_List_unchecked_const_iterator@V?$_List_val@U?$_List_simple_types@PEAVActionImplementation_base@input@gde@@@std@@@std@@U_Iterator_base0@2@@std@@QEAA@PEAU?$_List_node@PEAVActionImplementation_base@input@gde@@PEAX@1@PEBV?$_List_val@U?$_List_simple_types@PEAVActionImplementation_base@input@gde@@@std@@@1@@Z
	??0?$_List_unchecked_const_iterator@V?$_List_val@U?$_List_simple_types@PEAVControllerBase@gde@@@std@@@std@@U_Iterator_base0@2@@std@@QEAA@PEAU?$_List_node@PEAVControllerBase@gde@@PEAX@1@PEBV?$_List_val@U?$_List_simple_types@PEAVControllerBase@gde@@@std@@@1@@Z
	??0?$_List_unchecked_const_iterator@V?$_List_val@U?$_List_simple_types@PEAVEarlyUpdate@gde@@@std@@@std@@U_Iterator_base0@2@@std@@QEAA@PEAU?$_List_node@PEAVEarlyUpdate@gde@@PEAX@1@PEBV?$_List_val@U?$_List_simple_types@PEAVEarlyUpdate@gde@@@std@@@1@@Z
	??0?$_List_unchecked_const_iterator@V?$_List_val@U?$_List_simple_types@PEAVHandler@gde@@@std@@@std@@U_Iterator_base0@2@@std@@QEAA@PEAU?$_List_node@PEAVHandler@gde@@PEAX@1@PEBV?$_List_val@U?$_List_simple_types@PEAVHandler@gde@@@std@@@1@@Z
	??0?$_List_unchecked_const_iterator@V?$_List_val@U?$_List_simple_types@PEAVInputPlayer@gde@@@std@@@std@@U_Iterator_base0@2@@std@@QEAA@PEAU?$_List_node@PEAVInputPlayer@gde@@PEAX@1@PEBV?$_List_val@U?$_List_simple_types@PEAVInputPlayer@gde@@@std@@@1@@Z
	??0?$_List_unchecked_const_iterator@V?$_List_val@U?$_List_simple_types@PEAVLateUpdate@gde@@@std@@@std@@U_Iterator_base0@2@@std@@QEAA@PEAU?$_List_node@PEAVLateUpdate@gde@@PEAX@1@PEBV?$_List_val@U?$_List_simple_types@PEAVLateUpdate@gde@@@std@@@1@@Z
	??0?$_List_unchecked_const_iterator@V?$_List_val@U?$_List_simple_types@PEAVLightObject@gde@@@std@@@std@@U_Iterator_base0@2@@std@@QEAA@PEAU?$_List_node@PEAVLightObject@gde@@PEAX@1@PEBV?$_List_val@U?$_List_simple_types@PEAVLightObject@gde@@@std@@@1@@Z
	??0?$_List_unchecked_const_iterator@V?$_List_val@U?$_List_simple_types@PEAVObject@gde@@@std@@@std@@U_Iterator_base0@2@@std@@QEAA@PEAU?$_List_node@PEAVObject@gde@@PEAX@1@PEBV?$_List_val@U?$_List_simple_types@PEAVObject@gde@@@std@@@1@@Z
	??0?$_List_unchecked_const_iterator@V?$_List_val@U?$_List_simple_types@PEAVUpdate@gde@@@std@@@std@@U_Iterator_base0@2@@std@@QEAA@PEAU?$_List_node@PEAVUpdate@gde@@PEAX@1@PEBV?$_List_val@U?$_List_simple_types@PEAVUpdate@gde@@@std@@@1@@Z
	??0?$_List_unchecked_const_iterator@V?$_List_val@U?$_List_simple_types@U?$pair@$$CBV?$basic_string@DU?$char_traits@D@std@@V?$allocator@D@2@@std@@V?$list@PEAVActionImplementation_base@input@gde@@V?$allocator@PEAVActionImplementation_base@input@gde@@@std@@@2@@std@@@std@@@std@@U_Iterator_base0@2@@std@@QEAA@PEAU?$_List_node@U?$pair@$$CBV?$basic_string@DU?$char_traits@D@std@@V?$allocator@D@2@@std@@V?$list@PEAVActionImplementation_base@input@gde@@V?$allocator@PEAVActionImplementation_base@input@gde@@@std@@@2@@std@@PEAX@1@PEBV?$_List_val@U?$_List_simple_types@U?$pair@$$CBV?$basic_string@DU?$char_traits@D@std@@V?$allocator@D@2@@std@@V?$list@PEAVActionImplementation_base@input@gde@@V?$allocator@PEAVActionImplementation_base@input@gde@@@std@@@2@@std@@@std@@@1@@Z
	??0?$_List_unchecked_const_iterator@V?$_List_val@U?$_List_simple_types@U?$pair@$$CBV?$basic_string@DU?$char_traits@D@std@@V?$allocator@D@2@@std@@V?$list@PEAVActionImplementation_base@input@gde@@V?$allocator@PEAVActionImplementation_base@input@gde@@@std@@@2@@std@@@std@@@std@@U_Iterator_base12@2@@std@@QEAA@$$QEAV01@@Z
	??0?$_List_unchecked_const_iterator@V?$_List_val@U?$_List_simple_types@U?$pair@$$CBV?$basic_string@DU?$char_traits@D@std@@V?$allocator@D@2@@std@@V?$list@PEAVActionImplementation_base@input@gde@@V?$allocator@PEAVActionImplementation_base@input@gde@@@std@@@2@@std@@@std@@@std@@U_Iterator_base12@2@@std@@QEAA@PEAU?$_List_node@U?$pair@$$CBV?$basic_string@DU?$char_traits@D@std@@V?$allocator@D@2@@std@@V?$list@PEAVActionImplementation_base@input@gde@@V?$allocator@PEAVActionImplementation_base@input@gde@@@std@@@2@@std@@PEAX@1@PEBV?$_List_val@U?$_List_simple_types@U?$pair@$$CBV?$basic_string@DU?$char_traits@D@std@@V?$allocator@D@2@@std@@V?$list@PEAVActionImplementation_base@input@gde@@V?$allocator@PEAVActionImplementation_base@input@gde@@@std@@@2@@std@@@std@@@1@@Z
	??0?$_List_unchecked_const_iterator@V?$_List_val@U?$_List_simple_types@U?$pair@QEBDUMaterialOverride@rendering@gde@@@std@@@std@@@std@@U_Iterator_base0@2@@std@@QEAA@PEAU?$_List_node@U?$pair@QEBDUMaterialOverride@rendering@gde@@@std@@PEAX@1@PEBV?$_List_val@U?$_List_simple_types@U?$pair@QEBDUMaterialOverride@rendering@gde@@@std@@@std@@@1@@Z
	??0?$_List_unchecked_const_iterator@V?$_List_val@U?$_List_simple_types@U?$pair@QEBDUMaterialOverride@rendering@gde@@@std@@@std@@@std@@U_Iterator_base12@2@@std@@QEAA@$$QEAV01@@Z
	??0?$_List_unchecked_const_iterator@V?$_List_val@U?$_List_simple_types@U?$pair@QEBDUMaterialOverride@rendering@gde@@@std@@@std@@@std@@U_Iterator_base12@2@@std@@QEAA@PEAU?$_List_node@U?$pair@QEBDUMaterialOverride@rendering@gde@@@std@@PEAX@1@PEBV?$_List_val@U?$_List_simple_types@U?$pair@QEBDUMaterialOverride@rendering@gde@@@std@@@std@@@1@@Z
	??0?$_List_unchecked_iterator@V?$_List_val@U?$_List_simple_types@PEAVActionImplementation_base@input@gde@@@std@@@std@@@std@@QEAA@PEAU?$_List_node@PEAVActionImplementation_base@input@gde@@PEAX@1@PEBV?$_List_val@U?$_List_simple_types@PEAVActionImplementation_base@input@gde@@@std@@@1@@Z
	??0?$_List_unchecked_iterator@V?$_List_val@U?$_List_simple_types@PEAVControllerBase@gde@@@std@@@std@@@std@@QEAA@PEAU?$_List_node@PEAVControllerBase@gde@@PEAX@1@PEBV?$_List_val@U?$_List_simple_types@PEAVControllerBase@gde@@@std@@@1@@Z
	??0?$_List_unchecked_iterator@V?$_List_val@U?$_List_simple_types@PEAVEarlyUpdate@gde@@@std@@@std@@@std@@QEAA@PEAU?$_List_node@PEAVEarlyUpdate@gde@@PEAX@1@PEBV?$_List_val@U?$_List_simple_types@PEAVEarlyUpdate@gde@@@std@@@1@@Z
	??0?$_List_unchecked_iterator@V?$_List_val@U?$_List_simple_types@PEAVHandler@gde@@@std@@@std@@@std@@QEAA@PEAU?$_List_node@PEAVHandler@gde@@PEAX@1@PEBV?$_List_val@U?$_List_simple_types@PEAVHandler@gde@@@std@@@1@@Z
	??0?$_List_unchecked_iterator@V?$_List_val@U?$_List_simple_types@PEAVInputPlayer@gde@@@std@@@std@@@std@@QEAA@PEAU?$_List_node@PEAVInputPlayer@gde@@PEAX@1@PEBV?$_List_val@U?$_List_simple_types@PEAVInputPlayer@gde@@@std@@@1@@Z
	??0?$_List_unchecked_iterator@V?$_List_val@U?$_List_simple_types@PEAVLateUpdate@gde@@@std@@@std@@@std@@QEAA@PEAU?$_List_node@PEAVLateUpdate@gde@@PEAX@1@PEBV?$_List_val@U?$_List_simple_types@PEAVLateUpdate@gde@@@std@@@1@@Z
	??0?$_List_unchecked_iterator@V?$_List_val@U?$_List_simple_types@PEAVLightObject@gde@@@std@@@std@@@std@@QEAA@PEAU?$_List_node@PEAVLightObject@gde@@PEAX@1@PEBV?$_List_val@U?$_List_simple_types@PEAVLightObject@gde@@@std@@@1@@Z
	??0?$_List_unchecked_iterator@V?$_List_val@U?$_List_simple_types@PEAVObject@gde@@@std@@@std@@@std@@QEAA@PEAU?$_List_node@PEAVObject@gde@@PEAX@1@PEBV?$_List_val@U?$_List_simple_types@PEAVObject@gde@@@std@@@1@@Z
	??0?$_List_unchecked_iterator@V?$_List_val@U?$_List_simple_types@PEAVUpdate@gde@@@std@@@std@@@std@@QEAA@PEAU?$_List_node@PEAVUpdate@gde@@PEAX@1@PEBV?$_List_val@U?$_List_simple_types@PEAVUpdate@gde@@@std@@@1@@Z
	??0?$_List_unchecked_iterator@V?$_List_val@U?$_List_simple_types@U?$pair@$$CBV?$basic_string@DU?$char_traits@D@std@@V?$allocator@D@2@@std@@V?$list@PEAVActionImplementation_base@input@gde@@V?$allocator@PEAVActionImplementation_base@input@gde@@@std@@@2@@std@@@std@@@std@@@std@@QEAA@PEAU?$_List_node@U?$pair@$$CBV?$basic_string@DU?$char_traits@D@std@@V?$allocator@D@2@@std@@V?$list@PEAVActionImplementation_base@input@gde@@V?$allocator@PEAVActionImplementation_base@input@gde@@@std@@@2@@std@@PEAX@1@PEBV?$_List_val@U?$_List_simple_types@U?$pair@$$CBV?$basic_string@DU?$char_traits@D@std@@V?$allocator@D@2@@std@@V?$list@PEAVActionImplementation_base@input@gde@@V?$allocator@PEAVActionImplementation_base@input@gde@@@std@@@2@@std@@@std@@@1@@Z
	??0?$_List_unchecked_iterator@V?$_List_val@U?$_List_simple_types@U?$pair@QEBDUMaterialOverride@rendering@gde@@@std@@@std@@@std@@@std@@QEAA@PEAU?$_List_node@U?$pair@QEBDUMaterialOverride@rendering@gde@@@std@@PEAX@1@PEBV?$_List_val@U?$_List_simple_types@U?$pair@QEBDUMaterialOverride@rendering@gde@@@std@@@std@@@1@@Z
	??0?$_List_val@U?$_List_simple_types@PEAVActionImplementation_base@input@gde@@@std@@@std@@QEAA@XZ
	??0?$_List_val@U?$_List_simple_types@PEAVEarlyUpdate@gde@@@std@@@std@@QEAA@XZ
	??0?$_List_val@U?$_List_simple_types@PEAVHandler@gde@@@std@@@std@@QEAA@XZ
	??0?$_List_val@U?$_List_simple_types@PEAVInputPlayer@gde@@@std@@@std@@QEAA@XZ
	??0?$_List_val@U?$_List_simple_types@PEAVLateUpdate@gde@@@std@@@std@@QEAA@XZ
	??0?$_List_val@U?$_List_simple_types@PEAVLightObject@gde@@@std@@@std@@QEAA@XZ
	??0?$_List_val@U?$_List_simple_types@PEAVObject@gde@@@std@@@std@@QEAA@XZ
	??0?$_List_val@U?$_List_simple_types@PEAVUpdate@gde@@@std@@@std@@QEAA@XZ
	??0?$_List_val@U?$_List_simple_types@U?$pair@$$CBV?$basic_string@DU?$char_traits@D@std@@V?$allocator@D@2@@std@@V?$list@PEAVActionImplementation_base@input@gde@@V?$allocator@PEAVActionImplementation_base@input@gde@@@std@@@2@@std@@@std@@@std@@QEAA@XZ
	??0?$_String_val@U?$_Simple_types@D@std@@@std@@QEAA@XZ
	??0?$_Uhash_compare@V?$basic_string@DU?$char_traits@D@std@@V?$allocator@D@2@@std@@U?$hash@V?$basic_string@DU?$char_traits@D@std@@V?$allocator@D@2@@std@@@2@U?$equal_to@V?$basic_string@DU?$char_traits@D@std@@V?$allocator@D@2@@std@@@2@@std@@QEAA@XZ
	??0?$_Umap_traits@V?$basic_string@DU?$char_traits@D@std@@V?$allocator@D@2@@std@@V?$list@PEAVActionImplementation_base@input@gde@@V?$allocator@PEAVActionImplementation_base@input@gde@@@std@@@2@V?$_Uhash_compare@V?$basic_string@DU?$char_traits@D@std@@V?$allocator@D@2@@std@@U?$hash@V?$basic_string@DU?$char_traits@D@std@@V?$allocator@D@2@@std@@@2@U?$equal_to@V?$basic_string@DU?$char_traits@D@std@@V?$allocator@D@2@@std@@@2@@2@V?$allocator@U?$pair@$$CBV?$basic_string@DU?$char_traits@D@std@@V?$allocator@D@2@@std@@V?$list@PEAVActionImplementation_base@input@gde@@V?$allocator@PEAVActionImplementation_base@input@gde@@@std@@@2@@std@@@2@$0A@@std@@QEAA@AEBV?$_Uhash_compare@V?$basic_string@DU?$char_traits@D@std@@V?$allocator@D@2@@std@@U?$hash@V?$basic_string@DU?$char_traits@D@std@@V?$allocator@D@2@@std@@@2@U?$equal_to@V?$basic_string@DU?$char_traits@D@std@@V?$allocator@D@2@@std@@@2@@1@@Z
	??0?$_Uninitialized_backout@PEAV?$_List_unchecked_iterator@V?$_List_val@U?$_List_simple_types@U?$pair@$$CBV?$basic_string@DU?$char_traits@D@std@@V?$allocator@D@2@@std@@V?$list@PEAVActionImplementation_base@input@gde@@V?$allocator@PEAVActionImplementation_base@input@gde@@@std@@@2@@std@@@std@@@std@@@std@@@std@@QEAA@PEAV?$_List_unchecked_iterator@V?$_List_val@U?$_List_simple_types@U?$pair@$$CBV?$basic_string@DU?$char_traits@D@std@@V?$allocator@D@2@@std@@V?$list@PEAVActionImplementation_base@input@gde@@V?$allocator@PEAVActionImplementation_base@input@gde@@@std@@@2@@std@@@std@@@std@@@1@@Z
	??0?$_Uninitialized_backout@PEAV?$_List_unchecked_iterator@V?$_List_val@U?$_List_simple_types@U?$pair@QEBDUMaterialOverride@rendering@gde@@@std@@@std@@@std@@@std@@@std@@QEAA@PEAV?$_List_unchecked_iterator@V?$_List_val@U?$_List_simple_types@U?$pair@QEBDUMaterialOverride@rendering@gde@@@std@@@std@@@std@@@1@@Z
	??0?$_Uninitialized_backout_al@V?$allocator@PEAVDrawCall@rendering@gde@@@std@@@std@@QEAA@PEAPEAVDrawCall@rendering@gde@@AEAV?$allocator@PEAVDrawCall@rendering@gde@@@1@@Z
	??0?$_Uninitialized_backout_al@V?$allocator@UMaterialTexture@rendering@gde@@@std@@@std@@QEAA@PEAUMaterialTexture@rendering@gde@@AEAV?$allocator@UMaterialTexture@rendering@gde@@@1@@Z
	??0?$_Vector_val@U?$_Simple_types@PEAVDrawCall@rendering@gde@@@std@@@std@@QEAA@XZ
	??0?$_Vector_val@U?$_Simple_types@V?$_List_unchecked_iterator@V?$_List_val@U?$_List_simple_types@U?$pair@$$CBV?$basic_string@DU?$char_traits@D@std@@V?$allocator@D@2@@std@@V?$list@PEAVActionImplementation_base@input@gde@@V?$allocator@PEAVActionImplementation_base@input@gde@@@std@@@2@@std@@@std@@@std@@@std@@@std@@@std@@QEAA@XZ
	??0?$allocator@D@std@@QEAA@XZ
	??0?$allocator@PEAVDrawCall@rendering@gde@@@std@@QEAA@XZ
	??0?$allocator@U?$_List_node@PEAVActionImplementation_base@input@gde@@PEAX@std@@@std@@QEAA@XZ
	??0?$allocator@U?$_List_node@PEAVEarlyUpdate@gde@@PEAX@std@@@std@@QEAA@XZ
	??0?$allocator@U?$_List_node@PEAVHandler@gde@@PEAX@std@@@std@@QEAA@XZ
	??0?$allocator@U?$_List_node@PEAVInputPlayer@gde@@PEAX@std@@@std@@QEAA@XZ
	??0?$allocator@U?$_List_node@PEAVLateUpdate@gde@@PEAX@std@@@std@@QEAA@XZ
	??0?$allocator@U?$_List_node@PEAVLightObject@gde@@PEAX@std@@@std@@QEAA@XZ
	??0?$allocator@U?$_List_node@PEAVObject@gde@@PEAX@std@@@std@@QEAA@XZ
	??0?$allocator@U?$_List_node@PEAVUpdate@gde@@PEAX@std@@@std@@QEAA@XZ
	??0?$allocator@U?$pair@$$CBV?$basic_string@DU?$char_traits@D@std@@V?$allocator@D@2@@std@@V?$list@PEAVActionImplementation_base@input@gde@@V?$allocator@PEAVActionImplementation_base@input@gde@@@std@@@2@@std@@@std@@QEAA@XZ
	??0?$basic_string@DU?$char_traits@D@std@@V?$allocator@D@2@@std@@QEAA@$$QEAV01@@Z
	??0?$basic_string@DU?$char_traits@D@std@@V?$allocator@D@2@@std@@QEAA@AEBV01@@Z
	??0?$basic_string@DU?$char_traits@D@std@@V?$allocator@D@2@@std@@QEAA@QEBD@Z
	??0?$initializer_list@PEAVDrawCall@rendering@gde@@@std@@QEAA@PEBQEAVDrawCall@rendering@gde@@0@Z
	??0?$list@PEAVActionImplementation_base@input@gde@@V?$allocator@PEAVActionImplementation_base@input@gde@@@std@@@std@@QEAA@$$QEAV01@@Z
	??0?$list@PEAVActionImplementation_base@input@gde@@V?$allocator@PEAVActionImplementation_base@input@gde@@@std@@@std@@QEAA@AEBV01@@Z
	??0?$list@PEAVActionImplementation_base@input@gde@@V?$allocator@PEAVActionImplementation_base@input@gde@@@std@@@std@@QEAA@XZ
	??0?$list@PEAVEarlyUpdate@gde@@V?$allocator@PEAVEarlyUpdate@gde@@@std@@@std@@QEAA@XZ
	??0?$list@PEAVHandler@gde@@V?$allocator@PEAVHandler@gde@@@std@@@std@@QEAA@XZ
	??0?$list@PEAVInputPlayer@gde@@V?$allocator@PEAVInputPlayer@gde@@@std@@@std@@QEAA@XZ
	??0?$list@PEAVLateUpdate@gde@@V?$allocator@PEAVLateUpdate@gde@@@std@@@std@@QEAA@XZ
	??0?$list@PEAVLightObject@gde@@V?$allocator@PEAVLightObject@gde@@@std@@@std@@QEAA@XZ
	??0?$list@PEAVObject@gde@@V?$allocator@PEAVObject@gde@@@std@@@std@@QEAA@XZ
	??0?$list@PEAVUpdate@gde@@V?$allocator@PEAVUpdate@gde@@@std@@@std@@QEAA@XZ
	??0?$list@U?$pair@$$CBV?$basic_string@DU?$char_traits@D@std@@V?$allocator@D@2@@std@@V?$list@PEAVActionImplementation_base@input@gde@@V?$allocator@PEAVActionImplementation_base@input@gde@@@std@@@2@@std@@V?$allocator@U?$pair@$$CBV?$basic_string@DU?$char_traits@D@std@@V?$allocator@D@2@@std@@V?$list@PEAVActionImplementation_base@input@gde@@V?$allocator@PEAVActionImplementation_base@input@gde@@@std@@@2@@std@@@2@@std@@QEAA@AEBV?$allocator@U?$pair@$$CBV?$basic_string@DU?$char_traits@D@std@@V?$allocator@D@2@@std@@V?$list@PEAVActionImplementation_base@input@gde@@V?$allocator@PEAVActionImplementation_base@input@gde@@@std@@@2@@std@@@1@@Z
	??0?$pair@$$CBV?$basic_string@DU?$char_traits@D@std@@V?$allocator@D@2@@std@@V?$list@PEAVActionImplementation_base@input@gde@@V?$allocator@PEAVActionImplementation_base@input@gde@@@std@@@2@@std@@QEAA@AEBU01@@Z
	??0?$tuple@$$V@std@@QEAA@AEBV01@@Z
	??0?$tuple@AEBV?$basic_string@DU?$char_traits@D@std@@V?$allocator@D@2@@std@@@std@@QEAA@$$QEAV01@@Z
	??0?$unordered_map@V?$basic_string@DU?$char_traits@D@std@@V?$allocator@D@2@@std@@V?$list@PEAVActionImplementation_base@input@gde@@V?$allocator@PEAVActionImplementation_base@input@gde@@@std@@@2@U?$hash@V?$basic_string@DU?$char_traits@D@std@@V?$allocator@D@2@@std@@@2@U?$equal_to@V?$basic_string@DU?$char_traits@D@std@@V?$allocator@D@2@@std@@@2@V?$allocator@U?$pair@$$CBV?$basic_string@DU?$char_traits@D@std@@V?$allocator@D@2@@std@@V?$list@PEAVActionImplementation_base@input@gde@@V?$allocator@PEAVActionImplementation_base@input@gde@@@std@@@2@@std@@@2@@std@@QEAA@XZ
	??0?$vector@PEAVDrawCall@rendering@gde@@V?$allocator@PEAVDrawCall@rendering@gde@@@std@@@std@@QEAA@AEBV01@@Z
	??0?$vector@PEAVDrawCall@rendering@gde@@V?$allocator@PEAVDrawCall@rendering@gde@@@std@@@std@@QEAA@V?$initializer_list@PEAVDrawCall@rendering@gde@@@1@AEBV?$allocator@PEAVDrawCall@rendering@gde@@@1@@Z
	??0ActionImplementation_base@input@gde@@QEAA@XZ
	??0ChainJoint@gde@@QEAA@M@Z
	??0DirectionalLight@gde@@QEAA@XZ
	??0Editor@gde@@QEAA@XZ
	??0ForceVolume@gde@@QEAA@XZ
	??0Handler@gde@@QEAA@XZ
	??0InputAction@input@gde@@QEAA@AEBU012@@Z
	??0InputAction@input@gde@@QEAA@XZ
	??0InputHandler@gde@@QEAA@XZ
	??0InputSystem@input@gde@@QEAA@XZ
	??0LightObject@gde@@QEAA@XZ
	??0MouseScroll@input@gde@@QEAA@AEBU012@@Z
	??0MouseScroll@input@gde@@QEAA@XZ
	??0MouseScrollImplementation@input@gde@@QEAA@XZ
	??0Root@gde@@QEAA@XZ
	??0Update@gde@@QEAA@XZ
	??0_Basic_container_proxy_ptr12@std@@IEAA@XZ
	??0_Bxty@?$_String_val@U?$_Simple_types@D@std@@@std@@QEAA@XZ
	??0_Clear_guard@?$_Hash@V?$_Umap_traits@PEBDUMaterialOverride@rendering@gde@@V?$_Uhash_compare@PEBDU?$hash@PEBD@std@@U?$equal_to@PEBD@2@@std@@V?$allocator@U?$pair@QEBDUMaterialOverride@rendering@gde@@@std@@@5@$0A@@std@@@std@@QEAA@QEAV12@@Z
	??0_Clear_guard@?$_Hash@V?$_Umap_traits@V?$basic_string@DU?$char_traits@D@std@@V?$allocator@D@2@@std@@V?$list@PEAVActionImplementation_base@input@gde@@V?$allocator@PEAVActionImplementation_base@input@gde@@@std@@@2@V?$_Uhash_compare@V?$basic_string@DU?$char_traits@D@std@@V?$allocator@D@2@@std@@U?$hash@V?$basic_string@DU?$char_traits@D@std@@V?$allocator@D@2@@std@@@2@U?$equal_to@V?$basic_string@DU?$char_traits@D@std@@V?$allocator@D@2@@std@@@2@@2@V?$allocator@U?$pair@$$CBV?$basic_string@DU?$char_traits@D@std@@V?$allocator@D@2@@std@@V?$list@PEAVActionImplementation_base@input@gde@@V?$allocator@PEAVActionImplementation_base@input@gde@@@std@@@2@@std@@@2@$0A@@std@@@std@@QEAA@QEAV12@@Z
	??0_Container_base12@std@@QEAA@XZ
	??0_Container_proxy@std@@QEAA@PEAU_Container_base12@1@@Z
	??0_Iterator_base12@std@@QEAA@AEBU01@@Z
	??0_Iterator_base12@std@@QEAA@XZ
	??0_List_node_remove_op@?$list@PEAVEarlyUpdate@gde@@V?$allocator@PEAVEarlyUpdate@gde@@@std@@@std@@QEAA@AEAV12@@Z
	??0_List_node_remove_op@?$list@PEAVInputPlayer@gde@@V?$allocator@PEAVInputPlayer@gde@@@std@@@std@@QEAA@AEAV12@@Z
	??0_List_node_remove_op@?$list@PEAVLateUpdate@gde@@V?$allocator@PEAVLateUpdate@gde@@@std@@@std@@QEAA@AEAV12@@Z
	??0_List_node_remove_op@?$list@PEAVLightObject@gde@@V?$allocator@PEAVLightObject@gde@@@std@@@std@@QEAA@AEAV12@@Z
	??0_List_node_remove_op@?$list@PEAVUpdate@gde@@V?$allocator@PEAVUpdate@gde@@@std@@@std@@QEAA@AEAV12@@Z
	??0_Range_eraser@?$_Hash@V?$_Umap_traits@PEBDUMaterialOverride@rendering@gde@@V?$_Uhash_compare@PEBDU?$hash@PEBD@std@@U?$equal_to@PEBD@2@@std@@V?$allocator@U?$pair@QEBDUMaterialOverride@rendering@gde@@@std@@@5@$0A@@std@@@std@@QEAA@AEAV?$list@U?$pair@QEBDUMaterialOverride@rendering@gde@@@std@@V?$allocator@U?$pair@QEBDUMaterialOverride@rendering@gde@@@std@@@2@@2@QEAU?$_List_node@U?$pair@QEBDUMaterialOverride@rendering@gde@@@std@@PEAX@2@@Z
	??0_Range_eraser@?$_Hash@V?$_Umap_traits@V?$basic_string@DU?$char_traits@D@std@@V?$allocator@D@2@@std@@V?$list@PEAVActionImplementation_base@input@gde@@V?$allocator@PEAVActionImplementation_base@input@gde@@@std@@@2@V?$_Uhash_compare@V?$basic_string@DU?$char_traits@D@std@@V?$allocator@D@2@@std@@U?$hash@V?$basic_string@DU?$char_traits@D@std@@V?$allocator@D@2@@std@@@2@U?$equal_to@V?$basic_string@DU?$char_traits@D@std@@V?$allocator@D@2@@std@@@2@@2@V?$allocator@U?$pair@$$CBV?$basic_string@DU?$char_traits@D@std@@V?$allocator@D@2@@std@@V?$list@PEAVActionImplementation_base@input@gde@@V?$allocator@PEAVActionImplementation_base@input@gde@@@std@@@2@@std@@@2@$0A@@std@@@std@@QEAA@AEAV?$list@U?$pair@$$CBV?$basic_string@DU?$char_traits@D@std@@V?$allocator@D@2@@std@@V?$list@PEAVActionImplementation_base@input@gde@@V?$allocator@PEAVActionImplementation_base@input@gde@@@std@@@2@@std@@V?$allocator@U?$pair@$$CBV?$basic_string@DU?$char_traits@D@std@@V?$allocator@D@2@@std@@V?$list@PEAVActionImplementation_base@input@gde@@V?$allocator@PEAVActionImplementation_base@input@gde@@@std@@@2@@std@@@2@@2@QEAU?$_List_node@U?$pair@$$CBV?$basic_string@DU?$char_traits@D@std@@V?$allocator@D@2@@std@@V?$list@PEAVActionImplementation_base@input@gde@@V?$allocator@PEAVActionImplementation_base@input@gde@@@std@@@2@@std@@PEAX@2@@Z
	??0bad_alloc@std@@AEAA@QEBD@Z
	??0bad_alloc@std@@QEAA@AEBV01@@Z
	??0bad_array_new_length@std@@QEAA@AEBV01@@Z
	??0bad_array_new_length@std@@QEAA@XZ
	??0exception@std@@QEAA@AEBV01@@Z
	??0exception@std@@QEAA@QEBDH@Z
	??1?$ActionImplementation@U?$MouseDrag@$00@input@gde@@@input@gde@@QEAA@XZ
	??1?$ActionImplementation@U?$MouseDrag@$01@input@gde@@@input@gde@@QEAA@XZ
	??1?$KeyPress@$0A@@input@gde@@UEAA@XZ
	??1?$MouseDrag@$00@input@gde@@UEAA@XZ
	??1?$MouseDrag@$01@input@gde@@UEAA@XZ
	??1?$Vector@$01H@internal@gde@@QEAA@XZ
	??1?$Vector@$01M@internal@gde@@QEAA@XZ
	??1?$Vector@$02M@internal@gde@@QEAA@XZ
	??1?$_Alloc_construct_ptr@V?$allocator@U?$_List_node@PEAVActionImplementation_base@input@gde@@PEAX@std@@@std@@@std@@QEAA@XZ
	??1?$_Alloc_construct_ptr@V?$allocator@U?$_List_node@PEAVEarlyUpdate@gde@@PEAX@std@@@std@@@std@@QEAA@XZ
	??1?$_Alloc_construct_ptr@V?$allocator@U?$_List_node@PEAVInputPlayer@gde@@PEAX@std@@@std@@@std@@QEAA@XZ
	??1?$_Alloc_construct_ptr@V?$allocator@U?$_List_node@PEAVLateUpdate@gde@@PEAX@std@@@std@@@std@@QEAA@XZ
	??1?$_Alloc_construct_ptr@V?$allocator@U?$_List_node@PEAVLightObject@gde@@PEAX@std@@@std@@@std@@QEAA@XZ
	??1?$_Alloc_construct_ptr@V?$allocator@U?$_List_node@PEAVObject@gde@@PEAX@std@@@std@@@std@@QEAA@XZ
	??1?$_Alloc_construct_ptr@V?$allocator@U?$_List_node@PEAVUpdate@gde@@PEAX@std@@@std@@@std@@QEAA@XZ
	??1?$_Alloc_construct_ptr@V?$allocator@U?$_List_node@U?$pair@$$CBV?$basic_string@DU?$char_traits@D@std@@V?$allocator@D@2@@std@@V?$list@PEAVActionImplementation_base@input@gde@@V?$allocator@PEAVActionImplementation_base@input@gde@@@std@@@2@@std@@PEAX@std@@@std@@@std@@QEAA@XZ
	??1?$_Alloc_construct_ptr@V?$allocator@U?$_List_node@U?$pair@QEBDUMaterialOverride@rendering@gde@@@std@@PEAX@std@@@std@@@std@@QEAA@XZ
	??1?$_Compressed_pair@V?$allocator@D@std@@V?$_String_val@U?$_Simple_types@D@std@@@2@$00@std@@QEAA@XZ
	??1?$_Container_proxy_ptr12@V?$allocator@U_Container_proxy@std@@@std@@@std@@QEAA@XZ
	??1?$_Func_class@XN@std@@QEAA@XZ
	??1?$_Func_class@XPEAVInputCustomer_base@gde@@@std@@QEAA@XZ
	??1?$_Func_class@XPEAVObject@gde@@@std@@QEAA@XZ
	??1?$_Func_class@XV?$basic_string@DU?$char_traits@D@std@@V?$allocator@D@2@@std@@PEAUInputAction@input@gde@@_N@std@@QEAA@XZ
	??1?$_Hash_vec@V?$allocator@V?$_List_unchecked_iterator@V?$_List_val@U?$_List_simple_types@U?$pair@$$CBV?$basic_string@DU?$char_traits@D@std@@V?$allocator@D@2@@std@@V?$list@PEAVActionImplementation_base@input@gde@@V?$allocator@PEAVActionImplementation_base@input@gde@@@std@@@2@@std@@@std@@@std@@@std@@@std@@@std@@QEAA@XZ
	??1?$_List_const_iterator@V?$_List_val@U?$_List_simple_types@U?$pair@$$CBV?$basic_string@DU?$char_traits@D@std@@V?$allocator@D@2@@std@@V?$list@PEAVActionImplementation_base@input@gde@@V?$allocator@PEAVActionImplementation_base@input@gde@@@std@@@2@@std@@@std@@@std@@@std@@QEAA@XZ
	??1?$_List_const_iterator@V?$_List_val@U?$_List_simple_types@U?$pair@QEBDUMaterialOverride@rendering@gde@@@std@@@std@@@std@@@std@@QEAA@XZ
	??1?$_List_iterator@V?$_List_val@U?$_List_simple_types@U?$pair@$$CBV?$basic_string@DU?$char_traits@D@std@@V?$allocator@D@2@@std@@V?$list@PEAVActionImplementation_base@input@gde@@V?$allocator@PEAVActionImplementation_base@input@gde@@@std@@@2@@std@@@std@@@std@@@std@@QEAA@XZ
	??1?$_List_iterator@V?$_List_val@U?$_List_simple_types@U?$pair@QEBDUMaterialOverride@rendering@gde@@@std@@@std@@@std@@@std@@QEAA@XZ
	??1?$_List_node_emplace_op2@V?$allocator@U?$_List_node@PEAVActionImplementation_base@input@gde@@PEAX@std@@@std@@@std@@QEAA@XZ
	??1?$_List_node_emplace_op2@V?$allocator@U?$_List_node@PEAVEarlyUpdate@gde@@PEAX@std@@@std@@@std@@QEAA@XZ
	??1?$_List_node_emplace_op2@V?$allocator@U?$_List_node@PEAVInputPlayer@gde@@PEAX@std@@@std@@@std@@QEAA@XZ
	??1?$_List_node_emplace_op2@V?$allocator@U?$_List_node@PEAVLateUpdate@gde@@PEAX@std@@@std@@@std@@QEAA@XZ
	??1?$_List_node_emplace_op2@V?$allocator@U?$_List_node@PEAVLightObject@gde@@PEAX@std@@@std@@@std@@QEAA@XZ
	??1?$_List_node_emplace_op2@V?$allocator@U?$_List_node@PEAVObject@gde@@PEAX@std@@@std@@@std@@QEAA@XZ
	??1?$_List_node_emplace_op2@V?$allocator@U?$_List_node@PEAVUpdate@gde@@PEAX@std@@@std@@@std@@QEAA@XZ
	??1?$_List_node_emplace_op2@V?$allocator@U?$_List_node@U?$pair@$$CBV?$basic_string@DU?$char_traits@D@std@@V?$allocator@D@2@@std@@V?$list@PEAVActionImplementation_base@input@gde@@V?$allocator@PEAVActionImplementation_base@input@gde@@@std@@@2@@std@@PEAX@std@@@std@@@std@@QEAA@XZ
	??1?$_List_node_emplace_op2@V?$allocator@U?$_List_node@U?$pair@QEBDUMaterialOverride@rendering@gde@@@std@@PEAX@std@@@std@@@std@@QEAA@XZ
	??1?$_List_node_insert_op2@V?$allocator@U?$_List_node@PEAVActionImplementation_base@input@gde@@PEAX@std@@@std@@@std@@QEAA@XZ
	??1?$_List_unchecked_const_iterator@V?$_List_val@U?$_List_simple_types@U?$pair@$$CBV?$basic_string@DU?$char_traits@D@std@@V?$allocator@D@2@@std@@V?$list@PEAVActionImplementation_base@input@gde@@V?$allocator@PEAVActionImplementation_base@input@gde@@@std@@@2@@std@@@std@@@std@@U_Iterator_base12@2@@std@@QEAA@XZ
	??1?$_List_unchecked_const_iterator@V?$_List_val@U?$_List_simple_types@U?$pair@QEBDUMaterialOverride@rendering@gde@@@std@@@std@@@std@@U_Iterator_base12@2@@std@@QEAA@XZ
	??1?$_String_val@U?$_Simple_types@D@std@@@std@@QEAA@XZ
	??1?$_Tidy_guard@V?$vector@PEAVDrawCall@rendering@gde@@V?$allocator@PEAVDrawCall@rendering@gde@@@std@@@std@@@std@@QEAA@XZ
	??1?$_Uninitialized_backout@PEAV?$_List_unchecked_iterator@V?$_List_val@U?$_List_simple_types@U?$pair@$$CBV?$basic_string@DU?$char_traits@D@std@@V?$allocator@D@2@@std@@V?$list@PEAVActionImplementation_base@input@gde@@V?$allocator@PEAVActionImplementation_base@input@gde@@@std@@@2@@std@@@std@@@std@@@std@@@std@@QEAA@XZ
	??1?$_Uninitialized_backout@PEAV?$_List_unchecked_iterator@V?$_List_val@U?$_List_simple_types@U?$pair@QEBDUMaterialOverride@rendering@gde@@@std@@@std@@@std@@@std@@@std@@QEAA@XZ
	??1?$_Uninitialized_backout_al@V?$allocator@PEAVDrawCall@rendering@gde@@@std@@@std@@QEAA@XZ
	??1?$_Uninitialized_backout_al@V?$allocator@UMaterialTexture@rendering@gde@@@std@@@std@@QEAA@XZ
	??1?$basic_string@DU?$char_traits@D@std@@V?$allocator@D@2@@std@@QEAA@XZ
	??1?$function@$$A6AXV?$basic_string@DU?$char_traits@D@std@@V?$allocator@D@2@@std@@PEAUInputAction@input@gde@@_N@Z@std@@QEAA@XZ
	??1?$list@PEAVActionImplementation_base@input@gde@@V?$allocator@PEAVActionImplementation_base@input@gde@@@std@@@std@@QEAA@XZ
	??1?$list@PEAVHandler@gde@@V?$allocator@PEAVHandler@gde@@@std@@@std@@QEAA@XZ
	??1?$list@PEAVObject@gde@@V?$allocator@PEAVObject@gde@@@std@@@std@@QEAA@XZ
	??1?$list@U?$pair@$$CBV?$basic_string@DU?$char_traits@D@std@@V?$allocator@D@2@@std@@V?$list@PEAVActionImplementation_base@input@gde@@V?$allocator@PEAVActionImplementation_base@input@gde@@@std@@@2@@std@@V?$allocator@U?$pair@$$CBV?$basic_string@DU?$char_traits@D@std@@V?$allocator@D@2@@std@@V?$list@PEAVActionImplementation_base@input@gde@@V?$allocator@PEAVActionImplementation_base@input@gde@@@std@@@2@@std@@@2@@std@@QEAA@XZ
	??1?$pair@$$CBV?$basic_string@DU?$char_traits@D@std@@V?$allocator@D@2@@std@@V?$list@PEAVActionImplementation_base@input@gde@@V?$allocator@PEAVActionImplementation_base@input@gde@@@std@@@2@@std@@QEAA@XZ
	??1?$pair@V?$_List_iterator@V?$_List_val@U?$_List_simple_types@U?$pair@$$CBV?$basic_string@DU?$char_traits@D@std@@V?$allocator@D@2@@std@@V?$list@PEAVActionImplementation_base@input@gde@@V?$allocator@PEAVActionImplementation_base@input@gde@@@std@@@2@@std@@@std@@@std@@@std@@_N@std@@QEAA@XZ
	??1?$pair@V?$_List_iterator@V?$_List_val@U?$_List_simple_types@U?$pair@QEBDUMaterialOverride@rendering@gde@@@std@@@std@@@std@@@std@@_N@std@@QEAA@XZ
	??1?$vector@PEAHV?$allocator@PEAH@std@@@std@@QEAA@XZ
	??1?$vector@PEAMV?$allocator@PEAM@std@@@std@@QEAA@XZ
	??1?$vector@PEAVDrawCall@rendering@gde@@V?$allocator@PEAVDrawCall@rendering@gde@@@std@@@std@@QEAA@XZ
	??1ChainJoint@gde@@UEAA@XZ
	??1DirectionalLight@gde@@UEAA@XZ
	??1ForceVolume@gde@@UEAA@XZ
	??1InputAction@input@gde@@UEAA@XZ
	??1LightObject@gde@@UEAA@XZ
	??1MouseScroll@input@gde@@UEAA@XZ
	??1Root@gde@@UEAA@XZ
	??1Vector2@gde@@QEAA@XZ
	??1Vector2Int@gde@@QEAA@XZ
	??1Vector3@gde@@QEAA@XZ
	??1_Bxty@?$_String_val@U?$_Simple_types@D@std@@@std@@QEAA@XZ
	??1_Clear_guard@?$_Hash@V?$_Umap_traits@PEBDUMaterialOverride@rendering@gde@@V?$_Uhash_compare@PEBDU?$hash@PEBD@std@@U?$equal_to@PEBD@2@@std@@V?$allocator@U?$pair@QEBDUMaterialOverride@rendering@gde@@@std@@@5@$0A@@std@@@std@@QEAA@XZ
	??1_Clear_guard@?$_Hash@V?$_Umap_traits@V?$basic_string@DU?$char_traits@D@std@@V?$allocator@D@2@@std@@V?$list@PEAVActionImplementation_base@input@gde@@V?$allocator@PEAVActionImplementation_base@input@gde@@@std@@@2@V?$_Uhash_compare@V?$basic_string@DU?$char_traits@D@std@@V?$allocator@D@2@@std@@U?$hash@V?$basic_string@DU?$char_traits@D@std@@V?$allocator@D@2@@std@@@2@U?$equal_to@V?$basic_string@DU?$char_traits@D@std@@V?$allocator@D@2@@std@@@2@@2@V?$allocator@U?$pair@$$CBV?$basic_string@DU?$char_traits@D@std@@V?$allocator@D@2@@std@@V?$list@PEAVActionImplementation_base@input@gde@@V?$allocator@PEAVActionImplementation_base@input@gde@@@std@@@2@@std@@@2@$0A@@std@@@std@@QEAA@XZ
	??1_Iterator_base12@std@@QEAA@XZ
	??1_List_node_remove_op@?$list@PEAVEarlyUpdate@gde@@V?$allocator@PEAVEarlyUpdate@gde@@@std@@@std@@QEAA@XZ
	??1_List_node_remove_op@?$list@PEAVInputPlayer@gde@@V?$allocator@PEAVInputPlayer@gde@@@std@@@std@@QEAA@XZ
	??1_List_node_remove_op@?$list@PEAVLateUpdate@gde@@V?$allocator@PEAVLateUpdate@gde@@@std@@@std@@QEAA@XZ
	??1_List_node_remove_op@?$list@PEAVLightObject@gde@@V?$allocator@PEAVLightObject@gde@@@std@@@std@@QEAA@XZ
	??1_List_node_remove_op@?$list@PEAVUpdate@gde@@V?$allocator@PEAVUpdate@gde@@@std@@@std@@QEAA@XZ
	??1_Range_eraser@?$_Hash@V?$_Umap_traits@PEBDUMaterialOverride@rendering@gde@@V?$_Uhash_compare@PEBDU?$hash@PEBD@std@@U?$equal_to@PEBD@2@@std@@V?$allocator@U?$pair@QEBDUMaterialOverride@rendering@gde@@@std@@@5@$0A@@std@@@std@@QEAA@XZ
	??1_Range_eraser@?$_Hash@V?$_Umap_traits@V?$basic_string@DU?$char_traits@D@std@@V?$allocator@D@2@@std@@V?$list@PEAVActionImplementation_base@input@gde@@V?$allocator@PEAVActionImplementation_base@input@gde@@@std@@@2@V?$_Uhash_compare@V?$basic_string@DU?$char_traits@D@std@@V?$allocator@D@2@@std@@U?$hash@V?$basic_string@DU?$char_traits@D@std@@V?$allocator@D@2@@std@@@2@U?$equal_to@V?$basic_string@DU?$char_traits@D@std@@V?$allocator@D@2@@std@@@2@@2@V?$allocator@U?$pair@$$CBV?$basic_string@DU?$char_traits@D@std@@V?$allocator@D@2@@std@@V?$list@PEAVActionImplementation_base@input@gde@@V?$allocator@PEAVActionImplementation_base@input@gde@@@std@@@2@@std@@@2@$0A@@std@@@std@@QEAA@XZ
	??1bad_alloc@std@@UEAA@XZ
	??1bad_array_new_length@std@@UEAA@XZ
	??1exception@std@@UEAA@XZ
	??2@YAPEAX_KPEAX@Z
	??4?$Vector@$01H@internal@gde@@QEAAXAEBU012@@Z
	??4?$Vector@$02M@internal@gde@@QEAAXAEBU012@@Z
	??4?$list@PEAVActionImplementation_base@input@gde@@V?$allocator@PEAVActionImplementation_base@input@gde@@@std@@@std@@QEAAAEAV01@$$QEAV01@@Z
	??4Vector2Int@gde@@QEAAAEAU01@AEBU01@@Z
	??4Vector3@gde@@QEAAAEAU01@AEBU01@@Z
	??4_Iterator_base12@std@@QEAAAEAU01@AEBU01@@Z
	??8?$_List_const_iterator@V?$_List_val@U?$_List_simple_types@U?$pair@$$CBV?$basic_string@DU?$char_traits@D@std@@V?$allocator@D@2@@std@@V?$list@PEAVActionImplementation_base@input@gde@@V?$allocator@PEAVActionImplementation_base@input@gde@@@std@@@2@@std@@@std@@@std@@@std@@QEBA_NAEBV01@@Z
	??8?$_List_unchecked_const_iterator@V?$_List_val@U?$_List_simple_types@PEAVActionImplementation_base@input@gde@@@std@@@std@@U_Iterator_base0@2@@std@@QEBA_NAEBV01@@Z
	??8?$_List_unchecked_const_iterator@V?$_List_val@U?$_List_simple_types@PEAVControllerBase@gde@@@std@@@std@@U_Iterator_base0@2@@std@@QEBA_NAEBV01@@Z
	??8?$_List_unchecked_const_iterator@V?$_List_val@U?$_List_simple_types@PEAVEarlyUpdate@gde@@@std@@@std@@U_Iterator_base0@2@@std@@QEBA_NAEBV01@@Z
	??8?$_List_unchecked_const_iterator@V?$_List_val@U?$_List_simple_types@PEAVHandler@gde@@@std@@@std@@U_Iterator_base0@2@@std@@QEBA_NAEBV01@@Z
	??8?$_List_unchecked_const_iterator@V?$_List_val@U?$_List_simple_types@PEAVInputPlayer@gde@@@std@@@std@@U_Iterator_base0@2@@std@@QEBA_NAEBV01@@Z
	??8?$_List_unchecked_const_iterator@V?$_List_val@U?$_List_simple_types@PEAVLateUpdate@gde@@@std@@@std@@U_Iterator_base0@2@@std@@QEBA_NAEBV01@@Z
	??8?$_List_unchecked_const_iterator@V?$_List_val@U?$_List_simple_types@PEAVLightObject@gde@@@std@@@std@@U_Iterator_base0@2@@std@@QEBA_NAEBV01@@Z
	??8?$_List_unchecked_const_iterator@V?$_List_val@U?$_List_simple_types@PEAVObject@gde@@@std@@@std@@U_Iterator_base0@2@@std@@QEBA_NAEBV01@@Z
	??8?$_List_unchecked_const_iterator@V?$_List_val@U?$_List_simple_types@PEAVUpdate@gde@@@std@@@std@@U_Iterator_base0@2@@std@@QEBA_NAEBV01@@Z
	??8?$_List_unchecked_const_iterator@V?$_List_val@U?$_List_simple_types@U?$pair@$$CBV?$basic_string@DU?$char_traits@D@std@@V?$allocator@D@2@@std@@V?$list@PEAVActionImplementation_base@input@gde@@V?$allocator@PEAVActionImplementation_base@input@gde@@@std@@@2@@std@@@std@@@std@@U_Iterator_base0@2@@std@@QEBA_NAEBV01@@Z
	??8?$_List_unchecked_const_iterator@V?$_List_val@U?$_List_simple_types@U?$pair@QEBDUMaterialOverride@rendering@gde@@@std@@@std@@@std@@U_Iterator_base0@2@@std@@QEBA_NAEBV01@@Z
	??9?$_List_unchecked_const_iterator@V?$_List_val@U?$_List_simple_types@PEAVActionImplementation_base@input@gde@@@std@@@std@@U_Iterator_base0@2@@std@@QEBA_NAEBV01@@Z
	??9?$_List_unchecked_const_iterator@V?$_List_val@U?$_List_simple_types@PEAVControllerBase@gde@@@std@@@std@@U_Iterator_base0@2@@std@@QEBA_NAEBV01@@Z
	??9?$_List_unchecked_const_iterator@V?$_List_val@U?$_List_simple_types@PEAVEarlyUpdate@gde@@@std@@@std@@U_Iterator_base0@2@@std@@QEBA_NAEBV01@@Z
	??9?$_List_unchecked_const_iterator@V?$_List_val@U?$_List_simple_types@PEAVHandler@gde@@@std@@@std@@U_Iterator_base0@2@@std@@QEBA_NAEBV01@@Z
	??9?$_List_unchecked_const_iterator@V?$_List_val@U?$_List_simple_types@PEAVInputPlayer@gde@@@std@@@std@@U_Iterator_base0@2@@std@@QEBA_NAEBV01@@Z
	??9?$_List_unchecked_const_iterator@V?$_List_val@U?$_List_simple_types@PEAVLateUpdate@gde@@@std@@@std@@U_Iterator_base0@2@@std@@QEBA_NAEBV01@@Z
	??9?$_List_unchecked_const_iterator@V?$_List_val@U?$_List_simple_types@PEAVLightObject@gde@@@std@@@std@@U_Iterator_base0@2@@std@@QEBA_NAEBV01@@Z
	??9?$_List_unchecked_const_iterator@V?$_List_val@U?$_List_simple_types@PEAVObject@gde@@@std@@@std@@U_Iterator_base0@2@@std@@QEBA_NAEBV01@@Z
	??9?$_List_unchecked_const_iterator@V?$_List_val@U?$_List_simple_types@PEAVUpdate@gde@@@std@@@std@@U_Iterator_base0@2@@std@@QEBA_NAEBV01@@Z
	??9?$_List_unchecked_const_iterator@V?$_List_val@U?$_List_simple_types@U?$pair@$$CBV?$basic_string@DU?$char_traits@D@std@@V?$allocator@D@2@@std@@V?$list@PEAVActionImplementation_base@input@gde@@V?$allocator@PEAVActionImplementation_base@input@gde@@@std@@@2@@std@@@std@@@std@@U_Iterator_base0@2@@std@@QEBA_NAEBV01@@Z
	??9?$_List_unchecked_const_iterator@V?$_List_val@U?$_List_simple_types@U?$pair@QEBDUMaterialOverride@rendering@gde@@@std@@@std@@@std@@U_Iterator_base0@2@@std@@QEBA_NAEBV01@@Z
	??A?$unordered_map@V?$basic_string@DU?$char_traits@D@std@@V?$allocator@D@2@@std@@V?$list@PEAVActionImplementation_base@input@gde@@V?$allocator@PEAVActionImplementation_base@input@gde@@@std@@@2@U?$hash@V?$basic_string@DU?$char_traits@D@std@@V?$allocator@D@2@@std@@@2@U?$equal_to@V?$basic_string@DU?$char_traits@D@std@@V?$allocator@D@2@@std@@@2@V?$allocator@U?$pair@$$CBV?$basic_string@DU?$char_traits@D@std@@V?$allocator@D@2@@std@@V?$list@PEAVActionImplementation_base@input@gde@@V?$allocator@PEAVActionImplementation_base@input@gde@@@std@@@2@@std@@@2@@std@@QEAAAEAV?$list@PEAVActionImplementation_base@input@gde@@V?$allocator@PEAVActionImplementation_base@input@gde@@@std@@@1@AEBV?$basic_string@DU?$char_traits@D@std@@V?$allocator@D@2@@1@@Z
	??A?$vector@PEAHV?$allocator@PEAH@std@@@std@@QEAAAEAPEAH_K@Z
	??A?$vector@PEAHV?$allocator@PEAH@std@@@std@@QEBAAEBQEAH_K@Z
	??A?$vector@PEAMV?$allocator@PEAM@std@@@std@@QEAAAEAPEAM_K@Z
	??A?$vector@PEAMV?$allocator@PEAM@std@@@std@@QEBAAEBQEAM_K@Z
	??A?$vector@PEAVDrawCall@rendering@gde@@V?$allocator@PEAVDrawCall@rendering@gde@@@std@@@std@@QEBAAEBQEAVDrawCall@rendering@gde@@_K@Z
	??D?$_List_unchecked_const_iterator@V?$_List_val@U?$_List_simple_types@PEAVActionImplementation_base@input@gde@@@std@@@std@@U_Iterator_base0@2@@std@@QEBAAEBQEAVActionImplementation_base@input@gde@@XZ
	??D?$_List_unchecked_const_iterator@V?$_List_val@U?$_List_simple_types@PEAVControllerBase@gde@@@std@@@std@@U_Iterator_base0@2@@std@@QEBAAEBQEAVControllerBase@gde@@XZ
	??D?$_List_unchecked_const_iterator@V?$_List_val@U?$_List_simple_types@PEAVEarlyUpdate@gde@@@std@@@std@@U_Iterator_base0@2@@std@@QEBAAEBQEAVEarlyUpdate@gde@@XZ
	??D?$_List_unchecked_const_iterator@V?$_List_val@U?$_List_simple_types@PEAVHandler@gde@@@std@@@std@@U_Iterator_base0@2@@std@@QEBAAEBQEAVHandler@gde@@XZ
	??D?$_List_unchecked_const_iterator@V?$_List_val@U?$_List_simple_types@PEAVInputPlayer@gde@@@std@@@std@@U_Iterator_base0@2@@std@@QEBAAEBQEAVInputPlayer@gde@@XZ
	??D?$_List_unchecked_const_iterator@V?$_List_val@U?$_List_simple_types@PEAVLateUpdate@gde@@@std@@@std@@U_Iterator_base0@2@@std@@QEBAAEBQEAVLateUpdate@gde@@XZ
	??D?$_List_unchecked_const_iterator@V?$_List_val@U?$_List_simple_types@PEAVLightObject@gde@@@std@@@std@@U_Iterator_base0@2@@std@@QEBAAEBQEAVLightObject@gde@@XZ
	??D?$_List_unchecked_const_iterator@V?$_List_val@U?$_List_simple_types@PEAVObject@gde@@@std@@@std@@U_Iterator_base0@2@@std@@QEBAAEBQEAVObject@gde@@XZ
	??D?$_List_unchecked_const_iterator@V?$_List_val@U?$_List_simple_types@PEAVUpdate@gde@@@std@@@std@@U_Iterator_base0@2@@std@@QEBAAEBQEAVUpdate@gde@@XZ
	??D?$_List_unchecked_const_iterator@V?$_List_val@U?$_List_simple_types@U?$pair@$$CBV?$basic_string@DU?$char_traits@D@std@@V?$allocator@D@2@@std@@V?$list@PEAVActionImplementation_base@input@gde@@V?$allocator@PEAVActionImplementation_base@input@gde@@@std@@@2@@std@@@std@@@std@@U_Iterator_base0@2@@std@@QEBAAEBU?$pair@$$CBV?$basic_string@DU?$char_traits@D@std@@V?$allocator@D@2@@std@@V?$list@PEAVActionImplementation_base@input@gde@@V?$allocator@PEAVActionImplementation_base@input@gde@@@std@@@2@@1@XZ
	??D?$_List_unchecked_const_iterator@V?$_List_val@U?$_List_simple_types@U?$pair@QEBDUMaterialOverride@rendering@gde@@@std@@@std@@@std@@U_Iterator_base0@2@@std@@QEBAAEBU?$pair@QEBDUMaterialOverride@rendering@gde@@@1@XZ
	??D?$_List_unchecked_iterator@V?$_List_val@U?$_List_simple_types@PEAVActionImplementation_base@input@gde@@@std@@@std@@@std@@QEBAAEAPEAVActionImplementation_base@input@gde@@XZ
	??D?$_List_unchecked_iterator@V?$_List_val@U?$_List_simple_types@PEAVControllerBase@gde@@@std@@@std@@@std@@QEBAAEAPEAVControllerBase@gde@@XZ
	??D?$_List_unchecked_iterator@V?$_List_val@U?$_List_simple_types@PEAVEarlyUpdate@gde@@@std@@@std@@@std@@QEBAAEAPEAVEarlyUpdate@gde@@XZ
	??D?$_List_unchecked_iterator@V?$_List_val@U?$_List_simple_types@PEAVHandler@gde@@@std@@@std@@@std@@QEBAAEAPEAVHandler@gde@@XZ
	??D?$_List_unchecked_iterator@V?$_List_val@U?$_List_simple_types@PEAVInputPlayer@gde@@@std@@@std@@@std@@QEBAAEAPEAVInputPlayer@gde@@XZ
	??D?$_List_unchecked_iterator@V?$_List_val@U?$_List_simple_types@PEAVLateUpdate@gde@@@std@@@std@@@std@@QEBAAEAPEAVLateUpdate@gde@@XZ
	??D?$_List_unchecked_iterator@V?$_List_val@U?$_List_simple_types@PEAVLightObject@gde@@@std@@@std@@@std@@QEBAAEAPEAVLightObject@gde@@XZ
	??D?$_List_unchecked_iterator@V?$_List_val@U?$_List_simple_types@PEAVObject@gde@@@std@@@std@@@std@@QEBAAEAPEAVObject@gde@@XZ
	??D?$_List_unchecked_iterator@V?$_List_val@U?$_List_simple_types@PEAVUpdate@gde@@@std@@@std@@@std@@QEBAAEAPEAVUpdate@gde@@XZ
	??D?$_List_unchecked_iterator@V?$_List_val@U?$_List_simple_types@U?$pair@$$CBV?$basic_string@DU?$char_traits@D@std@@V?$allocator@D@2@@std@@V?$list@PEAVActionImplementation_base@input@gde@@V?$allocator@PEAVActionImplementation_base@input@gde@@@std@@@2@@std@@@std@@@std@@@std@@QEBAAEAU?$pair@$$CBV?$basic_string@DU?$char_traits@D@std@@V?$allocator@D@2@@std@@V?$list@PEAVActionImplementation_base@input@gde@@V?$allocator@PEAVActionImplementation_base@input@gde@@@std@@@2@@1@XZ
	??D?$_List_unchecked_iterator@V?$_List_val@U?$_List_simple_types@U?$pair@QEBDUMaterialOverride@rendering@gde@@@std@@@std@@@std@@@std@@QEBAAEAU?$pair@QEBDUMaterialOverride@rendering@gde@@@1@XZ
	??E?$_List_unchecked_const_iterator@V?$_List_val@U?$_List_simple_types@PEAVActionImplementation_base@input@gde@@@std@@@std@@U_Iterator_base0@2@@std@@QEAAAEAV01@XZ
	??E?$_List_unchecked_const_iterator@V?$_List_val@U?$_List_simple_types@PEAVControllerBase@gde@@@std@@@std@@U_Iterator_base0@2@@std@@QEAAAEAV01@XZ
	??E?$_List_unchecked_const_iterator@V?$_List_val@U?$_List_simple_types@PEAVEarlyUpdate@gde@@@std@@@std@@U_Iterator_base0@2@@std@@QEAAAEAV01@XZ
	??E?$_List_unchecked_const_iterator@V?$_List_val@U?$_List_simple_types@PEAVHandler@gde@@@std@@@std@@U_Iterator_base0@2@@std@@QEAAAEAV01@XZ
	??E?$_List_unchecked_const_iterator@V?$_List_val@U?$_List_simple_types@PEAVInputPlayer@gde@@@std@@@std@@U_Iterator_base0@2@@std@@QEAAAEAV01@XZ
	??E?$_List_unchecked_const_iterator@V?$_List_val@U?$_List_simple_types@PEAVLateUpdate@gde@@@std@@@std@@U_Iterator_base0@2@@std@@QEAAAEAV01@XZ
	??E?$_List_unchecked_const_iterator@V?$_List_val@U?$_List_simple_types@PEAVLightObject@gde@@@std@@@std@@U_Iterator_base0@2@@std@@QEAAAEAV01@XZ
	??E?$_List_unchecked_const_iterator@V?$_List_val@U?$_List_simple_types@PEAVObject@gde@@@std@@@std@@U_Iterator_base0@2@@std@@QEAAAEAV01@XZ
	??E?$_List_unchecked_const_iterator@V?$_List_val@U?$_List_simple_types@PEAVUpdate@gde@@@std@@@std@@U_Iterator_base0@2@@std@@QEAAAEAV01@XZ
	??E?$_List_unchecked_const_iterator@V?$_List_val@U?$_List_simple_types@U?$pair@$$CBV?$basic_string@DU?$char_traits@D@std@@V?$allocator@D@2@@std@@V?$list@PEAVActionImplementation_base@input@gde@@V?$allocator@PEAVActionImplementation_base@input@gde@@@std@@@2@@std@@@std@@@std@@U_Iterator_base0@2@@std@@QEAAAEAV01@XZ
	??E?$_List_unchecked_const_iterator@V?$_List_val@U?$_List_simple_types@U?$pair@QEBDUMaterialOverride@rendering@gde@@@std@@@std@@@std@@U_Iterator_base0@2@@std@@QEAAAEAV01@XZ
	??E?$_List_unchecked_iterator@V?$_List_val@U?$_List_simple_types@PEAVActionImplementation_base@input@gde@@@std@@@std@@@std@@QEAAAEAV01@XZ
	??E?$_List_unchecked_iterator@V?$_List_val@U?$_List_simple_types@PEAVControllerBase@gde@@@std@@@std@@@std@@QEAAAEAV01@XZ
	??E?$_List_unchecked_iterator@V?$_List_val@U?$_List_simple_types@PEAVEarlyUpdate@gde@@@std@@@std@@@std@@QEAAAEAV01@XZ
	??E?$_List_unchecked_iterator@V?$_List_val@U?$_List_simple_types@PEAVHandler@gde@@@std@@@std@@@std@@QEAAAEAV01@XZ
	??E?$_List_unchecked_iterator@V?$_List_val@U?$_List_simple_types@PEAVInputPlayer@gde@@@std@@@std@@@std@@QEAAAEAV01@XZ
	??E?$_List_unchecked_iterator@V?$_List_val@U?$_List_simple_types@PEAVLateUpdate@gde@@@std@@@std@@@std@@QEAAAEAV01@XZ
	??E?$_List_unchecked_iterator@V?$_List_val@U?$_List_simple_types@PEAVLightObject@gde@@@std@@@std@@@std@@QEAAAEAV01@XZ
	??E?$_List_unchecked_iterator@V?$_List_val@U?$_List_simple_types@PEAVObject@gde@@@std@@@std@@@std@@QEAAAEAV01@XZ
	??E?$_List_unchecked_iterator@V?$_List_val@U?$_List_simple_types@PEAVUpdate@gde@@@std@@@std@@@std@@QEAAAEAV01@XZ
	??E?$_List_unchecked_iterator@V?$_List_val@U?$_List_simple_types@U?$pair@$$CBV?$basic_string@DU?$char_traits@D@std@@V?$allocator@D@2@@std@@V?$list@PEAVActionImplementation_base@input@gde@@V?$allocator@PEAVActionImplementation_base@input@gde@@@std@@@2@@std@@@std@@@std@@@std@@QEAAAEAV01@XZ
	??E?$_List_unchecked_iterator@V?$_List_val@U?$_List_simple_types@U?$pair@QEBDUMaterialOverride@rendering@gde@@@std@@@std@@@std@@@std@@QEAAAEAV01@XZ
	??F?$_List_unchecked_const_iterator@V?$_List_val@U?$_List_simple_types@U?$pair@$$CBV?$basic_string@DU?$char_traits@D@std@@V?$allocator@D@2@@std@@V?$list@PEAVActionImplementation_base@input@gde@@V?$allocator@PEAVActionImplementation_base@input@gde@@@std@@@2@@std@@@std@@@std@@U_Iterator_base0@2@@std@@QEAAAEAV01@XZ
	??F?$_List_unchecked_const_iterator@V?$_List_val@U?$_List_simple_types@U?$pair@QEBDUMaterialOverride@rendering@gde@@@std@@@std@@@std@@U_Iterator_base0@2@@std@@QEAAAEAV01@XZ
	??R<lambda_35591935129e6c8f683ddcbb36bea7fb>@@QEBA@PEAVInputPlayer@gde@@@Z
	??R<lambda_4be23e8135c89c0558ad68b1498fdb66>@@QEBA@PEAVLightObject@gde@@@Z
	??R<lambda_71e78480163e419e7ab0aadcba209a68>@@QEBA@PEAVUpdate@gde@@@Z
	??R<lambda_a9807e7f65a47d71b0bd15aaf12f24f3>@@QEBA@PEAVEarlyUpdate@gde@@@Z
	??R<lambda_e4f7fdb38b58cad4a1a3e1469fa590a6>@@QEBA@PEAVLateUpdate@gde@@@Z
	??R?$_Conditionally_enabled_hash@PEBD$00@std@@QEBA_KAEBQEBD@Z
	??R?$_Conditionally_enabled_hash@V?$basic_string@DU?$char_traits@D@std@@V?$allocator@D@2@@std@@$00@std@@QEBA_KAEBV?$basic_string@DU?$char_traits@D@std@@V?$allocator@D@2@@1@@Z
	??R?$_Func_class@XV?$basic_string@DU?$char_traits@D@std@@V?$allocator@D@2@@std@@PEAUInputAction@input@gde@@_N@std@@QEBAXV?$basic_string@DU?$char_traits@D@std@@V?$allocator@D@2@@1@PEAUInputAction@input@gde@@_N@Z
	??R?$equal_to@PEBD@std@@QEBA_NAEBQEBD0@Z
	??R?$equal_to@V?$basic_string@DU?$char_traits@D@std@@V?$allocator@D@2@@std@@@std@@QEBA_NAEBV?$basic_string@DU?$char_traits@D@std@@V?$allocator@D@2@@1@0@Z
	??_7?$ActionImplementation@U?$KeyPress@$0A@@input@gde@@@input@gde@@6B@
	??_7?$ActionImplementation@U?$MouseDrag@$00@input@gde@@@input@gde@@6B@
	??_7?$ActionImplementation@U?$MouseDrag@$01@input@gde@@@input@gde@@6B@
	??_7?$ActionImplementation@UMouseScroll@input@gde@@@input@gde@@6B@
	??_7?$KeyPress@$0A@@input@gde@@6B@
	??_7?$KeyPressImplementation@$0A@@input@gde@@6B@
	??_7?$MouseDrag@$00@input@gde@@6B@
	??_7?$MouseDrag@$01@input@gde@@6B@
	??_7?$MouseDragImplementation@$00@input@gde@@6B@
	??_7?$MouseDragImplementation@$01@input@gde@@6B@
	??_7?$ObjectHandler@VEarlyUpdate@gde@@@gde@@6B@
	??_7?$ObjectHandler@VInputPlayer@gde@@@gde@@6B@
	??_7?$ObjectHandler@VLateUpdate@gde@@@gde@@6B@
	??_7?$ObjectHandler@VLightObject@gde@@@gde@@6B@
	??_7?$ObjectHandler@VUpdate@gde@@@gde@@6B@
	??_7ActionImplementation_base@input@gde@@6B@
	??_7ChainJoint@gde@@6BObject@1@@
	??_7ChainJoint@gde@@6BUpdate@1@@
	??_7DirectionalLight@gde@@6B@
	??_7ForceVolume@gde@@6B@
	??_7Handler@gde@@6B@
	??_7InputAction@input@gde@@6B@
	??_7InputHandler@gde@@6B@
	??_7LightObject@gde@@6B@
	??_7MouseScroll@input@gde@@6B@
	??_7MouseScrollImplementation@input@gde@@6B@
	??_7Root@gde@@6B@
	??_7Update@gde@@6B@
	??_7bad_alloc@std@@6B@
	??_7bad_array_new_length@std@@6B@
	??_7exception@std@@6B@
	?CheckStateChanged@?$ActionImplementation@U?$KeyPress@$0A@@input@gde@@@input@gde@@UEAA_NPEAVWindow@3@@Z
	?CheckStateChanged@?$ActionImplementation@U?$MouseDrag@$00@input@gde@@@input@gde@@UEAA_NPEAVWindow@3@@Z
	?CheckStateChanged@?$ActionImplementation@U?$MouseDrag@$01@input@gde@@@input@gde@@UEAA_NPEAVWindow@3@@Z
	?CheckStateChanged@?$ActionImplementation@UMouseScroll@input@gde@@@input@gde@@UEAA_NPEAVWindow@3@@Z
	?GetState@?$ActionImplementation@U?$KeyPress@$0A@@input@gde@@@input@gde@@UEAAPEAUInputAction@23@XZ
	?GetState@?$ActionImplementation@U?$MouseDrag@$00@input@gde@@@input@gde@@UEAAPEAUInputAction@23@XZ
	?GetState@?$ActionImplementation@U?$MouseDrag@$01@input@gde@@@input@gde@@UEAAPEAUInputAction@23@XZ
	?GetState@?$ActionImplementation@UMouseScroll@input@gde@@@input@gde@@UEAAPEAUInputAction@23@XZ
	?RegisterActionListener@InputSystem@input@gde@@QEAAXV?$basic_string@DU?$char_traits@D@std@@V?$allocator@D@2@@std@@PEAVActionImplementation_base@23@@Z
	?Remove@?$ObjectHandler@VEarlyUpdate@gde@@@gde@@UEAAXPEAVObject@2@@Z
	?Remove@?$ObjectHandler@VInputPlayer@gde@@@gde@@UEAAXPEAVObject@2@@Z
	?Remove@?$ObjectHandler@VLateUpdate@gde@@@gde@@UEAAXPEAVObject@2@@Z
	?Remove@?$ObjectHandler@VLightObject@gde@@@gde@@UEAAXPEAVObject@2@@Z
	?Remove@?$ObjectHandler@VUpdate@gde@@@gde@@UEAAXPEAVObject@2@@Z
	?ResetState@?$KeyPressImplementation@$0A@@input@gde@@UEAAXPEAVWindow@3@@Z
	?ResetState@?$MouseDragImplementation@$00@input@gde@@EEAAXPEAVWindow@3@@Z
	?ResetState@?$MouseDragImplementation@$01@input@gde@@EEAAXPEAVWindow@3@@Z
	?ResetStates@InputSystem@input@gde@@QEAAXPEAVWindow@3@@Z
	?Run@Editor@gde@@QEAAXXZ
	?TryAdd@?$ObjectHandler@VEarlyUpdate@gde@@@gde@@UEAA_NPEAVObject@2@@Z
	?TryAdd@?$ObjectHandler@VInputPlayer@gde@@@gde@@UEAA_NPEAVObject@2@@Z
	?TryAdd@?$ObjectHandler@VLateUpdate@gde@@@gde@@UEAA_NPEAVObject@2@@Z
	?TryAdd@?$ObjectHandler@VLightObject@gde@@@gde@@UEAA_NPEAVObject@2@@Z
	?TryAdd@?$ObjectHandler@VUpdate@gde@@@gde@@UEAA_NPEAVObject@2@@Z
	?UpdateState@?$KeyPressImplementation@$0A@@input@gde@@UEAAXPEAVWindow@3@@Z
	?UpdateState@?$MouseDragImplementation@$00@input@gde@@EEAAXPEAVWindow@3@@Z
	?UpdateState@?$MouseDragImplementation@$01@input@gde@@EEAAXPEAVWindow@3@@Z
	?UpdateStates@InputSystem@input@gde@@QEAAXV?$function@$$A6AXV?$basic_string@DU?$char_traits@D@std@@V?$allocator@D@2@@std@@PEAUInputAction@input@gde@@_N@Z@std@@PEAVWindow@3@@Z
	?_Activate_SSO_buffer@?$_String_val@U?$_Simple_types@D@std@@@std@@QEAAXXZ
	?_Adjust_manually_vector_aligned@std@@YAXAEAPEAXAEA_K@Z
	?_Adopt@_Iterator_base0@std@@QEAAXPEBX@Z
	?_Adopt@_Iterator_base12@std@@QEAAXPEBU_Container_base12@2@@Z
	?_Adopt_locked@_Iterator_base12@std@@AEAAXPEBU_Container_base12@2@@Z
	?_Adopt_unlocked@_Iterator_base12@std@@AEAAXPEBU_Container_base12@2@@Z
	?_Alloc_sentinel_and_proxy@?$list@PEAVActionImplementation_base@input@gde@@V?$allocator@PEAVActionImplementation_base@input@gde@@@std@@@std@@AEAAXXZ
	?_Alloc_sentinel_and_proxy@?$list@PEAVEarlyUpdate@gde@@V?$allocator@PEAVEarlyUpdate@gde@@@std@@@std@@AEAAXXZ
	?_Alloc_sentinel_and_proxy@?$list@PEAVHandler@gde@@V?$allocator@PEAVHandler@gde@@@std@@@std@@AEAAXXZ
	?_Alloc_sentinel_and_proxy@?$list@PEAVInputPlayer@gde@@V?$allocator@PEAVInputPlayer@gde@@@std@@@std@@AEAAXXZ
	?_Alloc_sentinel_and_proxy@?$list@PEAVLateUpdate@gde@@V?$allocator@PEAVLateUpdate@gde@@@std@@@std@@AEAAXXZ
	?_Alloc_sentinel_and_proxy@?$list@PEAVLightObject@gde@@V?$allocator@PEAVLightObject@gde@@@std@@@std@@AEAAXXZ
	?_Alloc_sentinel_and_proxy@?$list@PEAVObject@gde@@V?$allocator@PEAVObject@gde@@@std@@@std@@AEAAXXZ
	?_Alloc_sentinel_and_proxy@?$list@PEAVUpdate@gde@@V?$allocator@PEAVUpdate@gde@@@std@@@std@@AEAAXXZ
	?_Alloc_sentinel_and_proxy@?$list@U?$pair@$$CBV?$basic_string@DU?$char_traits@D@std@@V?$allocator@D@2@@std@@V?$list@PEAVActionImplementation_base@input@gde@@V?$allocator@PEAVActionImplementation_base@input@gde@@@std@@@2@@std@@V?$allocator@U?$pair@$$CBV?$basic_string@DU?$char_traits@D@std@@V?$allocator@D@2@@std@@V?$list@PEAVActionImplementation_base@input@gde@@V?$allocator@PEAVActionImplementation_base@input@gde@@@std@@@2@@std@@@2@@std@@AEAAXXZ
	?_Allocate@?$_Alloc_construct_ptr@V?$allocator@U?$_List_node@PEAVActionImplementation_base@input@gde@@PEAX@std@@@std@@@std@@QEAAXXZ
	?_Allocate@?$_Alloc_construct_ptr@V?$allocator@U?$_List_node@PEAVEarlyUpdate@gde@@PEAX@std@@@std@@@std@@QEAAXXZ
	?_Allocate@?$_Alloc_construct_ptr@V?$allocator@U?$_List_node@PEAVInputPlayer@gde@@PEAX@std@@@std@@@std@@QEAAXXZ
	?_Allocate@?$_Alloc_construct_ptr@V?$allocator@U?$_List_node@PEAVLateUpdate@gde@@PEAX@std@@@std@@@std@@QEAAXXZ
	?_Allocate@?$_Alloc_construct_ptr@V?$allocator@U?$_List_node@PEAVLightObject@gde@@PEAX@std@@@std@@@std@@QEAAXXZ
	?_Allocate@?$_Alloc_construct_ptr@V?$allocator@U?$_List_node@PEAVObject@gde@@PEAX@std@@@std@@@std@@QEAAXXZ
	?_Allocate@?$_Alloc_construct_ptr@V?$allocator@U?$_List_node@PEAVUpdate@gde@@PEAX@std@@@std@@@std@@QEAAXXZ
	?_Allocate@?$_Alloc_construct_ptr@V?$allocator@U?$_List_node@U?$pair@$$CBV?$basic_string@DU?$char_traits@D@std@@V?$allocator@D@2@@std@@V?$list@PEAVActionImplementation_base@input@gde@@V?$allocator@PEAVActionImplementation_base@input@gde@@@std@@@2@@std@@PEAX@std@@@std@@@std@@QEAAXXZ
	?_Allocate@?$_Alloc_construct_ptr@V?$allocator@U?$_List_node@U?$pair@QEBDUMaterialOverride@rendering@gde@@@std@@PEAX@std@@@std@@@std@@QEAAXXZ
	?_Allocate@_Default_allocate_traits@std@@SAPEAX_K@Z
	?_Assign_grow@?$_Hash_vec@V?$allocator@V?$_List_unchecked_iterator@V?$_List_val@U?$_List_simple_types@U?$pair@$$CBV?$basic_string@DU?$char_traits@D@std@@V?$allocator@D@2@@std@@V?$list@PEAVActionImplementation_base@input@gde@@V?$allocator@PEAVActionImplementation_base@input@gde@@@std@@@2@@std@@@std@@@std@@@std@@@std@@@std@@QEAAX_KV?$_List_unchecked_iterator@V?$_List_val@U?$_List_simple_types@U?$pair@$$CBV?$basic_string@DU?$char_traits@D@std@@V?$allocator@D@2@@std@@V?$list@PEAVActionImplementation_base@input@gde@@V?$allocator@PEAVActionImplementation_base@input@gde@@@std@@@2@@std@@@std@@@std@@@2@@Z
	?_Assign_grow@?$_Hash_vec@V?$allocator@V?$_List_unchecked_iterator@V?$_List_val@U?$_List_simple_types@U?$pair@QEBDUMaterialOverride@rendering@gde@@@std@@@std@@@std@@@std@@@std@@@std@@QEAAX_KV?$_List_unchecked_iterator@V?$_List_val@U?$_List_simple_types@U?$pair@QEBDUMaterialOverride@rendering@gde@@@std@@@std@@@std@@@2@@Z
	?_Assign_locked@_Iterator_base12@std@@AEAAXAEBU12@@Z
	?_Assign_unlocked@_Iterator_base12@std@@AEAAXAEBU12@@Z
	?_Bump_erased@_Range_eraser@?$_Hash@V?$_Umap_traits@PEBDUMaterialOverride@rendering@gde@@V?$_Uhash_compare@PEBDU?$hash@PEBD@std@@U?$equal_to@PEBD@2@@std@@V?$allocator@U?$pair@QEBDUMaterialOverride@rendering@gde@@@std@@@5@$0A@@std@@@std@@QEAAXXZ
	?_Bump_erased@_Range_eraser@?$_Hash@V?$_Umap_traits@V?$basic_string@DU?$char_traits@D@std@@V?$allocator@D@2@@std@@V?$list@PEAVActionImplementation_base@input@gde@@V?$allocator@PEAVActionImplementation_base@input@gde@@@std@@@2@V?$_Uhash_compare@V?$basic_string@DU?$char_traits@D@std@@V?$allocator@D@2@@std@@U?$hash@V?$basic_string@DU?$char_traits@D@std@@V?$allocator@D@2@@std@@@2@U?$equal_to@V?$basic_string@DU?$char_traits@D@std@@V?$allocator@D@2@@std@@@2@@2@V?$allocator@U?$pair@$$CBV?$basic_string@DU?$char_traits@D@std@@V?$allocator@D@2@@std@@V?$list@PEAVActionImplementation_base@input@gde@@V?$allocator@PEAVActionImplementation_base@input@gde@@@std@@@2@@std@@@2@$0A@@std@@@std@@QEAAXXZ
	?_Buy_nonzero@?$vector@PEAVDrawCall@rendering@gde@@V?$allocator@PEAVDrawCall@rendering@gde@@@std@@@std@@AEAAX_K@Z
	?_Buy_raw@?$vector@PEAVDrawCall@rendering@gde@@V?$allocator@PEAVDrawCall@rendering@gde@@@std@@@std@@AEAAX_K@Z
	?_Calculate_growth@?$basic_string@DU?$char_traits@D@std@@V?$allocator@D@2@@std@@CA_K_K00@Z
	?_Calculate_growth@?$vector@UMaterialTexture@rendering@gde@@V?$allocator@UMaterialTexture@rendering@gde@@@std@@@std@@AEBA_K_K@Z
	?_Ceiling_of_log_2@std@@YAK_K@Z
	?_Change_array@?$vector@UMaterialTexture@rendering@gde@@V?$allocator@UMaterialTexture@rendering@gde@@@std@@@std@@AEAAXQEAUMaterialTexture@rendering@gde@@_K1@Z
	?_Check_max_size@?$_Hash@V?$_Umap_traits@PEBDUMaterialOverride@rendering@gde@@V?$_Uhash_compare@PEBDU?$hash@PEBD@std@@U?$equal_to@PEBD@2@@std@@V?$allocator@U?$pair@QEBDUMaterialOverride@rendering@gde@@@std@@@5@$0A@@std@@@std@@IEBAXXZ
	?_Check_max_size@?$_Hash@V?$_Umap_traits@V?$basic_string@DU?$char_traits@D@std@@V?$allocator@D@2@@std@@V?$list@PEAVActionImplementation_base@input@gde@@V?$allocator@PEAVActionImplementation_base@input@gde@@@std@@@2@V?$_Uhash_compare@V?$basic_string@DU?$char_traits@D@std@@V?$allocator@D@2@@std@@U?$hash@V?$basic_string@DU?$char_traits@D@std@@V?$allocator@D@2@@std@@@2@U?$equal_to@V?$basic_string@DU?$char_traits@D@std@@V?$allocator@D@2@@std@@@2@@2@V?$allocator@U?$pair@$$CBV?$basic_string@DU?$char_traits@D@std@@V?$allocator@D@2@@std@@V?$list@PEAVActionImplementation_base@input@gde@@V?$allocator@PEAVActionImplementation_base@input@gde@@@std@@@2@@std@@@2@$0A@@std@@@std@@IEBAXXZ
	?_Check_rehash_required_1@?$_Hash@V?$_Umap_traits@PEBDUMaterialOverride@rendering@gde@@V?$_Uhash_compare@PEBDU?$hash@PEBD@std@@U?$equal_to@PEBD@2@@std@@V?$allocator@U?$pair@QEBDUMaterialOverride@rendering@gde@@@std@@@5@$0A@@std@@@std@@IEBA_NXZ
	?_Check_rehash_required_1@?$_Hash@V?$_Umap_traits@V?$basic_string@DU?$char_traits@D@std@@V?$allocator@D@2@@std@@V?$list@PEAVActionImplementation_base@input@gde@@V?$allocator@PEAVActionImplementation_base@input@gde@@@std@@@2@V?$_Uhash_compare@V?$basic_string@DU?$char_traits@D@std@@V?$allocator@D@2@@std@@U?$hash@V?$basic_string@DU?$char_traits@D@std@@V?$allocator@D@2@@std@@@2@U?$equal_to@V?$basic_string@DU?$char_traits@D@std@@V?$allocator@D@2@@std@@@2@@2@V?$allocator@U?$pair@$$CBV?$basic_string@DU?$char_traits@D@std@@V?$allocator@D@2@@std@@V?$list@PEAVActionImplementation_base@input@gde@@V?$allocator@PEAVActionImplementation_base@input@gde@@@std@@@2@@std@@@2@$0A@@std@@@std@@IEBA_NXZ
	?_Deallocate_for_capacity@?$basic_string@DU?$char_traits@D@std@@V?$allocator@D@2@@std@@CAXAEAV?$allocator@D@2@QEAD_K@Z
	?_Desired_grow_bucket_count@?$_Hash@V?$_Umap_traits@PEBDUMaterialOverride@rendering@gde@@V?$_Uhash_compare@PEBDU?$hash@PEBD@std@@U?$equal_to@PEBD@2@@std@@V?$allocator@U?$pair@QEBDUMaterialOverride@rendering@gde@@@std@@@5@$0A@@std@@@std@@IEBA_K_K@Z
	?_Desired_grow_bucket_count@?$_Hash@V?$_Umap_traits@V?$basic_string@DU?$char_traits@D@std@@V?$allocator@D@2@@std@@V?$list@PEAVActionImplementation_base@input@gde@@V?$allocator@PEAVActionImplementation_base@input@gde@@@std@@@2@V?$_Uhash_compare@V?$basic_string@DU?$char_traits@D@std@@V?$allocator@D@2@@std@@U?$hash@V?$basic_string@DU?$char_traits@D@std@@V?$allocator@D@2@@std@@@2@U?$equal_to@V?$basic_string@DU?$char_traits@D@std@@V?$allocator@D@2@@std@@@2@@2@V?$allocator@U?$pair@$$CBV?$basic_string@DU?$char_traits@D@std@@V?$allocator@D@2@@std@@V?$list@PEAVActionImplementation_base@input@gde@@V?$allocator@PEAVActionImplementation_base@input@gde@@@std@@@2@@std@@@2@$0A@@std@@@std@@IEBA_K_K@Z
	?_Do_hash@?$hash@PEBD@std@@SA_KAEBQEBD@Z
	?_Do_hash@?$hash@V?$basic_string@DU?$char_traits@D@std@@V?$allocator@D@2@@std@@@std@@SA_KAEBV?$basic_string@DU?$char_traits@D@std@@V?$allocator@D@2@@2@@Z
	?_Empty@?$_Func_class@XN@std@@IEBA_NXZ
	?_Empty@?$_Func_class@XPEAVInputCustomer_base@gde@@@std@@IEBA_NXZ
	?_Empty@?$_Func_class@XPEAVObject@gde@@@std@@IEBA_NXZ
	?_Empty@?$_Func_class@XV?$basic_string@DU?$char_traits@D@std@@V?$allocator@D@2@@std@@PEAUInputAction@input@gde@@_N@std@@IEBA_NXZ
	?_Equal@?$basic_string@DU?$char_traits@D@std@@V?$allocator@D@2@@std@@QEBA_NAEBV12@@Z
	?_Floor_of_log_2@std@@YAK_K@Z
	?_Fnv1a_append_bytes@std@@YA_K_KQEBE_K@Z
	?_Forced_rehash@?$_Hash@V?$_Umap_traits@PEBDUMaterialOverride@rendering@gde@@V?$_Uhash_compare@PEBDU?$hash@PEBD@std@@U?$equal_to@PEBD@2@@std@@V?$allocator@U?$pair@QEBDUMaterialOverride@rendering@gde@@@std@@@5@$0A@@std@@@std@@IEAAX_K@Z
	?_Forced_rehash@?$_Hash@V?$_Umap_traits@V?$basic_string@DU?$char_traits@D@std@@V?$allocator@D@2@@std@@V?$list@PEAVActionImplementation_base@input@gde@@V?$allocator@PEAVActionImplementation_base@input@gde@@@std@@@2@V?$_Uhash_compare@V?$basic_string@DU?$char_traits@D@std@@V?$allocator@D@2@@std@@U?$hash@V?$basic_string@DU?$char_traits@D@std@@V?$allocator@D@2@@std@@@2@U?$equal_to@V?$basic_string@DU?$char_traits@D@std@@V?$allocator@D@2@@std@@@2@@2@V?$allocator@U?$pair@$$CBV?$basic_string@DU?$char_traits@D@std@@V?$allocator@D@2@@std@@V?$list@PEAVActionImplementation_base@input@gde@@V?$allocator@PEAVActionImplementation_base@input@gde@@@std@@@2@@std@@@2@$0A@@std@@@std@@IEAAX_K@Z
	?_Get_first@?$_Compressed_pair@U?$equal_to@PEBD@std@@M$00@std@@QEBAAEBU?$equal_to@PEBD@2@XZ
	?_Get_first@?$_Compressed_pair@U?$equal_to@V?$basic_string@DU?$char_traits@D@std@@V?$allocator@D@2@@std@@@std@@M$00@std@@QEBAAEBU?$equal_to@V?$basic_string@DU?$char_traits@D@std@@V?$allocator@D@2@@std@@@2@XZ
	?_Get_first@?$_Compressed_pair@U?$hash@PEBD@std@@V?$_Compressed_pair@U?$equal_to@PEBD@std@@M$00@2@$00@std@@QEBAAEBU?$hash@PEBD@2@XZ
	?_Get_first@?$_Compressed_pair@U?$hash@V?$basic_string@DU?$char_traits@D@std@@V?$allocator@D@2@@std@@@std@@V?$_Compressed_pair@U?$equal_to@V?$basic_string@DU?$char_traits@D@std@@V?$allocator@D@2@@std@@@std@@M$00@2@$00@std@@QEBAAEBU?$hash@V?$basic_string@DU?$char_traits@D@std@@V?$allocator@D@2@@std@@@2@XZ
	?_Get_first@?$_Compressed_pair@V?$allocator@D@std@@V?$_String_val@U?$_Simple_types@D@std@@@2@$00@std@@QEAAAEAV?$allocator@D@2@XZ
	?_Get_first@?$_Compressed_pair@V?$allocator@D@std@@V?$_String_val@U?$_Simple_types@D@std@@@2@$00@std@@QEBAAEBV?$allocator@D@2@XZ
	?_Get_first@?$_Compressed_pair@V?$allocator@PEAH@std@@V?$_Vector_val@U?$_Simple_types@PEAH@std@@@2@$00@std@@QEAAAEAV?$allocator@PEAH@2@XZ
	?_Get_first@?$_Compressed_pair@V?$allocator@PEAM@std@@V?$_Vector_val@U?$_Simple_types@PEAM@std@@@2@$00@std@@QEAAAEAV?$allocator@PEAM@2@XZ
	?_Get_first@?$_Compressed_pair@V?$allocator@PEAVDrawCall@rendering@gde@@@std@@V?$_Vector_val@U?$_Simple_types@PEAVDrawCall@rendering@gde@@@std@@@2@$00@std@@QEAAAEAV?$allocator@PEAVDrawCall@rendering@gde@@@2@XZ
	?_Get_first@?$_Compressed_pair@V?$allocator@PEAVDrawCall@rendering@gde@@@std@@V?$_Vector_val@U?$_Simple_types@PEAVDrawCall@rendering@gde@@@std@@@2@$00@std@@QEBAAEBV?$allocator@PEAVDrawCall@rendering@gde@@@2@XZ
	?_Get_first@?$_Compressed_pair@V?$allocator@U?$_List_node@PEAVActionImplementation_base@input@gde@@PEAX@std@@@std@@V?$_List_val@U?$_List_simple_types@PEAVActionImplementation_base@input@gde@@@std@@@2@$00@std@@QEAAAEAV?$allocator@U?$_List_node@PEAVActionImplementation_base@input@gde@@PEAX@std@@@2@XZ
	?_Get_first@?$_Compressed_pair@V?$allocator@U?$_List_node@PEAVActionImplementation_base@input@gde@@PEAX@std@@@std@@V?$_List_val@U?$_List_simple_types@PEAVActionImplementation_base@input@gde@@@std@@@2@$00@std@@QEBAAEBV?$allocator@U?$_List_node@PEAVActionImplementation_base@input@gde@@PEAX@std@@@2@XZ
	?_Get_first@?$_Compressed_pair@V?$allocator@U?$_List_node@PEAVEarlyUpdate@gde@@PEAX@std@@@std@@V?$_List_val@U?$_List_simple_types@PEAVEarlyUpdate@gde@@@std@@@2@$00@std@@QEAAAEAV?$allocator@U?$_List_node@PEAVEarlyUpdate@gde@@PEAX@std@@@2@XZ
	?_Get_first@?$_Compressed_pair@V?$allocator@U?$_List_node@PEAVEarlyUpdate@gde@@PEAX@std@@@std@@V?$_List_val@U?$_List_simple_types@PEAVEarlyUpdate@gde@@@std@@@2@$00@std@@QEBAAEBV?$allocator@U?$_List_node@PEAVEarlyUpdate@gde@@PEAX@std@@@2@XZ
	?_Get_first@?$_Compressed_pair@V?$allocator@U?$_List_node@PEAVHandler@gde@@PEAX@std@@@std@@V?$_List_val@U?$_List_simple_types@PEAVHandler@gde@@@std@@@2@$00@std@@QEAAAEAV?$allocator@U?$_List_node@PEAVHandler@gde@@PEAX@std@@@2@XZ
	?_Get_first@?$_Compressed_pair@V?$allocator@U?$_List_node@PEAVInputPlayer@gde@@PEAX@std@@@std@@V?$_List_val@U?$_List_simple_types@PEAVInputPlayer@gde@@@std@@@2@$00@std@@QEAAAEAV?$allocator@U?$_List_node@PEAVInputPlayer@gde@@PEAX@std@@@2@XZ
	?_Get_first@?$_Compressed_pair@V?$allocator@U?$_List_node@PEAVInputPlayer@gde@@PEAX@std@@@std@@V?$_List_val@U?$_List_simple_types@PEAVInputPlayer@gde@@@std@@@2@$00@std@@QEBAAEBV?$allocator@U?$_List_node@PEAVInputPlayer@gde@@PEAX@std@@@2@XZ
	?_Get_first@?$_Compressed_pair@V?$allocator@U?$_List_node@PEAVLateUpdate@gde@@PEAX@std@@@std@@V?$_List_val@U?$_List_simple_types@PEAVLateUpdate@gde@@@std@@@2@$00@std@@QEAAAEAV?$allocator@U?$_List_node@PEAVLateUpdate@gde@@PEAX@std@@@2@XZ
	?_Get_first@?$_Compressed_pair@V?$allocator@U?$_List_node@PEAVLateUpdate@gde@@PEAX@std@@@std@@V?$_List_val@U?$_List_simple_types@PEAVLateUpdate@gde@@@std@@@2@$00@std@@QEBAAEBV?$allocator@U?$_List_node@PEAVLateUpdate@gde@@PEAX@std@@@2@XZ
	?_Get_first@?$_Compressed_pair@V?$allocator@U?$_List_node@PEAVLightObject@gde@@PEAX@std@@@std@@V?$_List_val@U?$_List_simple_types@PEAVLightObject@gde@@@std@@@2@$00@std@@QEAAAEAV?$allocator@U?$_List_node@PEAVLightObject@gde@@PEAX@std@@@2@XZ
	?_Get_first@?$_Compressed_pair@V?$allocator@U?$_List_node@PEAVLightObject@gde@@PEAX@std@@@std@@V?$_List_val@U?$_List_simple_types@PEAVLightObject@gde@@@std@@@2@$00@std@@QEBAAEBV?$allocator@U?$_List_node@PEAVLightObject@gde@@PEAX@std@@@2@XZ
	?_Get_first@?$_Compressed_pair@V?$allocator@U?$_List_node@PEAVObject@gde@@PEAX@std@@@std@@V?$_List_val@U?$_List_simple_types@PEAVObject@gde@@@std@@@2@$00@std@@QEAAAEAV?$allocator@U?$_List_node@PEAVObject@gde@@PEAX@std@@@2@XZ
	?_Get_first@?$_Compressed_pair@V?$allocator@U?$_List_node@PEAVObject@gde@@PEAX@std@@@std@@V?$_List_val@U?$_List_simple_types@PEAVObject@gde@@@std@@@2@$00@std@@QEBAAEBV?$allocator@U?$_List_node@PEAVObject@gde@@PEAX@std@@@2@XZ
	?_Get_first@?$_Compressed_pair@V?$allocator@U?$_List_node@PEAVUpdate@gde@@PEAX@std@@@std@@V?$_List_val@U?$_List_simple_types@PEAVUpdate@gde@@@std@@@2@$00@std@@QEAAAEAV?$allocator@U?$_List_node@PEAVUpdate@gde@@PEAX@std@@@2@XZ
	?_Get_first@?$_Compressed_pair@V?$allocator@U?$_List_node@PEAVUpdate@gde@@PEAX@std@@@std@@V?$_List_val@U?$_List_simple_types@PEAVUpdate@gde@@@std@@@2@$00@std@@QEBAAEBV?$allocator@U?$_List_node@PEAVUpdate@gde@@PEAX@std@@@2@XZ
	?_Get_first@?$_Compressed_pair@V?$allocator@U?$_List_node@U?$pair@$$CBV?$basic_string@DU?$char_traits@D@std@@V?$allocator@D@2@@std@@V?$list@PEAVActionImplementation_base@input@gde@@V?$allocator@PEAVActionImplementation_base@input@gde@@@std@@@2@@std@@PEAX@std@@@std@@V?$_List_val@U?$_List_simple_types@U?$pair@$$CBV?$basic_string@DU?$char_traits@D@std@@V?$allocator@D@2@@std@@V?$list@PEAVActionImplementation_base@input@gde@@V?$allocator@PEAVActionImplementation_base@input@gde@@@std@@@2@@std@@@std@@@2@$00@std@@QEAAAEAV?$allocator@U?$_List_node@U?$pair@$$CBV?$basic_string@DU?$char_traits@D@std@@V?$allocator@D@2@@std@@V?$list@PEAVActionImplementation_base@input@gde@@V?$allocator@PEAVActionImplementation_base@input@gde@@@std@@@2@@std@@PEAX@std@@@2@XZ
	?_Get_first@?$_Compressed_pair@V?$allocator@U?$_List_node@U?$pair@$$CBV?$basic_string@DU?$char_traits@D@std@@V?$allocator@D@2@@std@@V?$list@PEAVActionImplementation_base@input@gde@@V?$allocator@PEAVActionImplementation_base@input@gde@@@std@@@2@@std@@PEAX@std@@@std@@V?$_List_val@U?$_List_simple_types@U?$pair@$$CBV?$basic_string@DU?$char_traits@D@std@@V?$allocator@D@2@@std@@V?$list@PEAVActionImplementation_base@input@gde@@V?$allocator@PEAVActionImplementation_base@input@gde@@@std@@@2@@std@@@std@@@2@$00@std@@QEBAAEBV?$allocator@U?$_List_node@U?$pair@$$CBV?$basic_string@DU?$char_traits@D@std@@V?$allocator@D@2@@std@@V?$list@PEAVActionImplementation_base@input@gde@@V?$allocator@PEAVActionImplementation_base@input@gde@@@std@@@2@@std@@PEAX@std@@@2@XZ
	?_Get_first@?$_Compressed_pair@V?$allocator@U?$_List_node@U?$pair@QEBDUMaterialOverride@rendering@gde@@@std@@PEAX@std@@@std@@V?$_List_val@U?$_List_simple_types@U?$pair@QEBDUMaterialOverride@rendering@gde@@@std@@@std@@@2@$00@std@@QEAAAEAV?$allocator@U?$_List_node@U?$pair@QEBDUMaterialOverride@rendering@gde@@@std@@PEAX@std@@@2@XZ
	?_Get_first@?$_Compressed_pair@V?$allocator@U?$_List_node@U?$pair@QEBDUMaterialOverride@rendering@gde@@@std@@PEAX@std@@@std@@V?$_List_val@U?$_List_simple_types@U?$pair@QEBDUMaterialOverride@rendering@gde@@@std@@@std@@@2@$00@std@@QEBAAEBV?$allocator@U?$_List_node@U?$pair@QEBDUMaterialOverride@rendering@gde@@@std@@PEAX@std@@@2@XZ
	?_Get_first@?$_Compressed_pair@V?$allocator@UMaterialTexture@rendering@gde@@@std@@V?$_Vector_val@U?$_Simple_types@UMaterialTexture@rendering@gde@@@std@@@2@$00@std@@QEAAAEAV?$allocator@UMaterialTexture@rendering@gde@@@2@XZ
	?_Get_first@?$_Compressed_pair@V?$allocator@UMaterialTexture@rendering@gde@@@std@@V?$_Vector_val@U?$_Simple_types@UMaterialTexture@rendering@gde@@@std@@@2@$00@std@@QEBAAEBV?$allocator@UMaterialTexture@rendering@gde@@@2@XZ
	?_Get_first@?$_Compressed_pair@V?$allocator@V?$_List_unchecked_iterator@V?$_List_val@U?$_List_simple_types@U?$pair@$$CBV?$basic_string@DU?$char_traits@D@std@@V?$allocator@D@2@@std@@V?$list@PEAVActionImplementation_base@input@gde@@V?$allocator@PEAVActionImplementation_base@input@gde@@@std@@@2@@std@@@std@@@std@@@std@@@std@@V?$_Vector_val@U?$_Simple_types@V?$_List_unchecked_iterator@V?$_List_val@U?$_List_simple_types@U?$pair@$$CBV?$basic_string@DU?$char_traits@D@std@@V?$allocator@D@2@@std@@V?$list@PEAVActionImplementation_base@input@gde@@V?$allocator@PEAVActionImplementation_base@input@gde@@@std@@@2@@std@@@std@@@std@@@std@@@std@@@2@$00@std@@QEAAAEAV?$allocator@V?$_List_unchecked_iterator@V?$_List_val@U?$_List_simple_types@U?$pair@$$CBV?$basic_string@DU?$char_traits@D@std@@V?$allocator@D@2@@std@@V?$list@PEAVActionImplementation_base@input@gde@@V?$allocator@PEAVActionImplementation_base@input@gde@@@std@@@2@@std@@@std@@@std@@@std@@@2@XZ
	?_Get_first@?$_Compressed_pair@V?$allocator@V?$_List_unchecked_iterator@V?$_List_val@U?$_List_simple_types@U?$pair@$$CBV?$basic_string@DU?$char_traits@D@std@@V?$allocator@D@2@@std@@V?$list@PEAVActionImplementation_base@input@gde@@V?$allocator@PEAVActionImplementation_base@input@gde@@@std@@@2@@std@@@std@@@std@@@std@@@std@@V?$_Vector_val@U?$_Simple_types@V?$_List_unchecked_iterator@V?$_List_val@U?$_List_simple_types@U?$pair@$$CBV?$basic_string@DU?$char_traits@D@std@@V?$allocator@D@2@@std@@V?$list@PEAVActionImplementation_base@input@gde@@V?$allocator@PEAVActionImplementation_base@input@gde@@@std@@@2@@std@@@std@@@std@@@std@@@std@@@2@$00@std@@QEBAAEBV?$allocator@V?$_List_unchecked_iterator@V?$_List_val@U?$_List_simple_types@U?$pair@$$CBV?$basic_string@DU?$char_traits@D@std@@V?$allocator@D@2@@std@@V?$list@PEAVActionImplementation_base@input@gde@@V?$allocator@PEAVActionImplementation_base@input@gde@@@std@@@2@@std@@@std@@@std@@@std@@@2@XZ
	?_Get_first@?$_Compressed_pair@V?$allocator@V?$_List_unchecked_iterator@V?$_List_val@U?$_List_simple_types@U?$pair@QEBDUMaterialOverride@rendering@gde@@@std@@@std@@@std@@@std@@@std@@V?$_Vector_val@U?$_Simple_types@V?$_List_unchecked_iterator@V?$_List_val@U?$_List_simple_types@U?$pair@QEBDUMaterialOverride@rendering@gde@@@std@@@std@@@std@@@std@@@std@@@2@$00@std@@QEAAAEAV?$allocator@V?$_List_unchecked_iterator@V?$_List_val@U?$_List_simple_types@U?$pair@QEBDUMaterialOverride@rendering@gde@@@std@@@std@@@std@@@std@@@2@XZ
	?_Get_first@?$_Compressed_pair@V?$allocator@V?$_List_unchecked_iterator@V?$_List_val@U?$_List_simple_types@U?$pair@QEBDUMaterialOverride@rendering@gde@@@std@@@std@@@std@@@std@@@std@@V?$_Vector_val@U?$_Simple_types@V?$_List_unchecked_iterator@V?$_List_val@U?$_List_simple_types@U?$pair@QEBDUMaterialOverride@rendering@gde@@@std@@@std@@@std@@@std@@@std@@@2@$00@std@@QEBAAEBV?$allocator@V?$_List_unchecked_iterator@V?$_List_val@U?$_List_simple_types@U?$pair@QEBDUMaterialOverride@rendering@gde@@@std@@@std@@@std@@@std@@@2@XZ
	?_Get_max_bucket_size@?$_Uhash_compare@PEBDU?$hash@PEBD@std@@U?$equal_to@PEBD@2@@std@@QEBAAEBMXZ
	?_Get_max_bucket_size@?$_Uhash_compare@V?$basic_string@DU?$char_traits@D@std@@V?$allocator@D@2@@std@@U?$hash@V?$basic_string@DU?$char_traits@D@std@@V?$allocator@D@2@@std@@@2@U?$equal_to@V?$basic_string@DU?$char_traits@D@std@@V?$allocator@D@2@@std@@@2@@std@@QEAAAEAMXZ
	?_Get_max_bucket_size@?$_Uhash_compare@V?$basic_string@DU?$char_traits@D@std@@V?$allocator@D@2@@std@@U?$hash@V?$basic_string@DU?$char_traits@D@std@@V?$allocator@D@2@@std@@@2@U?$equal_to@V?$basic_string@DU?$char_traits@D@std@@V?$allocator@D@2@@std@@@2@@std@@QEBAAEBMXZ
	?_Getal@?$_Hash@V?$_Umap_traits@PEBDUMaterialOverride@rendering@gde@@V?$_Uhash_compare@PEBDU?$hash@PEBD@std@@U?$equal_to@PEBD@2@@std@@V?$allocator@U?$pair@QEBDUMaterialOverride@rendering@gde@@@std@@@5@$0A@@std@@@std@@IEAAAEAV?$allocator@U?$_List_node@U?$pair@QEBDUMaterialOverride@rendering@gde@@@std@@PEAX@std@@@2@XZ
	?_Getal@?$_Hash@V?$_Umap_traits@V?$basic_string@DU?$char_traits@D@std@@V?$allocator@D@2@@std@@V?$list@PEAVActionImplementation_base@input@gde@@V?$allocator@PEAVActionImplementation_base@input@gde@@@std@@@2@V?$_Uhash_compare@V?$basic_string@DU?$char_traits@D@std@@V?$allocator@D@2@@std@@U?$hash@V?$basic_string@DU?$char_traits@D@std@@V?$allocator@D@2@@std@@@2@U?$equal_to@V?$basic_string@DU?$char_traits@D@std@@V?$allocator@D@2@@std@@@2@@2@V?$allocator@U?$pair@$$CBV?$basic_string@DU?$char_traits@D@std@@V?$allocator@D@2@@std@@V?$list@PEAVActionImplementation_base@input@gde@@V?$allocator@PEAVActionImplementation_base@input@gde@@@std@@@2@@std@@@2@$0A@@std@@@std@@IEAAAEAV?$allocator@U?$_List_node@U?$pair@$$CBV?$basic_string@DU?$char_traits@D@std@@V?$allocator@D@2@@std@@V?$list@PEAVActionImplementation_base@input@gde@@V?$allocator@PEAVActionImplementation_base@input@gde@@@std@@@2@@std@@PEAX@std@@@2@XZ
	?_Getal@?$basic_string@DU?$char_traits@D@std@@V?$allocator@D@2@@std@@AEAAAEAV?$allocator@D@2@XZ
	?_Getal@?$basic_string@DU?$char_traits@D@std@@V?$allocator@D@2@@std@@AEBAAEBV?$allocator@D@2@XZ
	?_Getal@?$list@PEAVActionImplementation_base@input@gde@@V?$allocator@PEAVActionImplementation_base@input@gde@@@std@@@std@@AEAAAEAV?$allocator@U?$_List_node@PEAVActionImplementation_base@input@gde@@PEAX@std@@@2@XZ
	?_Getal@?$list@PEAVActionImplementation_base@input@gde@@V?$allocator@PEAVActionImplementation_base@input@gde@@@std@@@std@@AEBAAEBV?$allocator@U?$_List_node@PEAVActionImplementation_base@input@gde@@PEAX@std@@@2@XZ
	?_Getal@?$list@PEAVEarlyUpdate@gde@@V?$allocator@PEAVEarlyUpdate@gde@@@std@@@std@@AEAAAEAV?$allocator@U?$_List_node@PEAVEarlyUpdate@gde@@PEAX@std@@@2@XZ
	?_Getal@?$list@PEAVEarlyUpdate@gde@@V?$allocator@PEAVEarlyUpdate@gde@@@std@@@std@@AEBAAEBV?$allocator@U?$_List_node@PEAVEarlyUpdate@gde@@PEAX@std@@@2@XZ
	?_Getal@?$list@PEAVHandler@gde@@V?$allocator@PEAVHandler@gde@@@std@@@std@@AEAAAEAV?$allocator@U?$_List_node@PEAVHandler@gde@@PEAX@std@@@2@XZ
	?_Getal@?$list@PEAVInputPlayer@gde@@V?$allocator@PEAVInputPlayer@gde@@@std@@@std@@AEAAAEAV?$allocator@U?$_List_node@PEAVInputPlayer@gde@@PEAX@std@@@2@XZ
	?_Getal@?$list@PEAVInputPlayer@gde@@V?$allocator@PEAVInputPlayer@gde@@@std@@@std@@AEBAAEBV?$allocator@U?$_List_node@PEAVInputPlayer@gde@@PEAX@std@@@2@XZ
	?_Getal@?$list@PEAVLateUpdate@gde@@V?$allocator@PEAVLateUpdate@gde@@@std@@@std@@AEAAAEAV?$allocator@U?$_List_node@PEAVLateUpdate@gde@@PEAX@std@@@2@XZ
	?_Getal@?$list@PEAVLateUpdate@gde@@V?$allocator@PEAVLateUpdate@gde@@@std@@@std@@AEBAAEBV?$allocator@U?$_List_node@PEAVLateUpdate@gde@@PEAX@std@@@2@XZ
	?_Getal@?$list@PEAVLightObject@gde@@V?$allocator@PEAVLightObject@gde@@@std@@@std@@AEAAAEAV?$allocator@U?$_List_node@PEAVLightObject@gde@@PEAX@std@@@2@XZ
	?_Getal@?$list@PEAVLightObject@gde@@V?$allocator@PEAVLightObject@gde@@@std@@@std@@AEBAAEBV?$allocator@U?$_List_node@PEAVLightObject@gde@@PEAX@std@@@2@XZ
	?_Getal@?$list@PEAVObject@gde@@V?$allocator@PEAVObject@gde@@@std@@@std@@AEAAAEAV?$allocator@U?$_List_node@PEAVObject@gde@@PEAX@std@@@2@XZ
	?_Getal@?$list@PEAVObject@gde@@V?$allocator@PEAVObject@gde@@@std@@@std@@AEBAAEBV?$allocator@U?$_List_node@PEAVObject@gde@@PEAX@std@@@2@XZ
	?_Getal@?$list@PEAVUpdate@gde@@V?$allocator@PEAVUpdate@gde@@@std@@@std@@AEAAAEAV?$allocator@U?$_List_node@PEAVUpdate@gde@@PEAX@std@@@2@XZ
	?_Getal@?$list@PEAVUpdate@gde@@V?$allocator@PEAVUpdate@gde@@@std@@@std@@AEBAAEBV?$allocator@U?$_List_node@PEAVUpdate@gde@@PEAX@std@@@2@XZ
	?_Getal@?$list@U?$pair@$$CBV?$basic_string@DU?$char_traits@D@std@@V?$allocator@D@2@@std@@V?$list@PEAVActionImplementation_base@input@gde@@V?$allocator@PEAVActionImplementation_base@input@gde@@@std@@@2@@std@@V?$allocator@U?$pair@$$CBV?$basic_string@DU?$char_traits@D@std@@V?$allocator@D@2@@std@@V?$list@PEAVActionImplementation_base@input@gde@@V?$allocator@PEAVActionImplementation_base@input@gde@@@std@@@2@@std@@@2@@std@@AEAAAEAV?$allocator@U?$_List_node@U?$pair@$$CBV?$basic_string@DU?$char_traits@D@std@@V?$allocator@D@2@@std@@V?$list@PEAVActionImplementation_base@input@gde@@V?$allocator@PEAVActionImplementation_base@input@gde@@@std@@@2@@std@@PEAX@std@@@2@XZ
	?_Getal@?$list@U?$pair@$$CBV?$basic_string@DU?$char_traits@D@std@@V?$allocator@D@2@@std@@V?$list@PEAVActionImplementation_base@input@gde@@V?$allocator@PEAVActionImplementation_base@input@gde@@@std@@@2@@std@@V?$allocator@U?$pair@$$CBV?$basic_string@DU?$char_traits@D@std@@V?$allocator@D@2@@std@@V?$list@PEAVActionImplementation_base@input@gde@@V?$allocator@PEAVActionImplementation_base@input@gde@@@std@@@2@@std@@@2@@std@@AEBAAEBV?$allocator@U?$_List_node@U?$pair@$$CBV?$basic_string@DU?$char_traits@D@std@@V?$allocator@D@2@@std@@V?$list@PEAVActionImplementation_base@input@gde@@V?$allocator@PEAVActionImplementation_base@input@gde@@@std@@@2@@std@@PEAX@std@@@2@XZ
	?_Getal@?$list@U?$pair@QEBDUMaterialOverride@rendering@gde@@@std@@V?$allocator@U?$pair@QEBDUMaterialOverride@rendering@gde@@@std@@@2@@std@@AEAAAEAV?$allocator@U?$_List_node@U?$pair@QEBDUMaterialOverride@rendering@gde@@@std@@PEAX@std@@@2@XZ
	?_Getal@?$list@U?$pair@QEBDUMaterialOverride@rendering@gde@@@std@@V?$allocator@U?$pair@QEBDUMaterialOverride@rendering@gde@@@std@@@2@@std@@AEBAAEBV?$allocator@U?$_List_node@U?$pair@QEBDUMaterialOverride@rendering@gde@@@std@@PEAX@std@@@2@XZ
	?_Getal@?$vector@PEAHV?$allocator@PEAH@std@@@std@@AEAAAEAV?$allocator@PEAH@2@XZ
	?_Getal@?$vector@PEAMV?$allocator@PEAM@std@@@std@@AEAAAEAV?$allocator@PEAM@2@XZ
	?_Getal@?$vector@PEAVDrawCall@rendering@gde@@V?$allocator@PEAVDrawCall@rendering@gde@@@std@@@std@@AEAAAEAV?$allocator@PEAVDrawCall@rendering@gde@@@2@XZ
	?_Getal@?$vector@PEAVDrawCall@rendering@gde@@V?$allocator@PEAVDrawCall@rendering@gde@@@std@@@std@@AEBAAEBV?$allocator@PEAVDrawCall@rendering@gde@@@2@XZ
	?_Getal@?$vector@UMaterialTexture@rendering@gde@@V?$allocator@UMaterialTexture@rendering@gde@@@std@@@std@@AEAAAEAV?$allocator@UMaterialTexture@rendering@gde@@@2@XZ
	?_Getal@?$vector@UMaterialTexture@rendering@gde@@V?$allocator@UMaterialTexture@rendering@gde@@@std@@@std@@AEBAAEBV?$allocator@UMaterialTexture@rendering@gde@@@2@XZ
	?_Getcont@_Iterator_base12@std@@QEBAPEBU_Container_base12@2@XZ
	?_Getimpl@?$_Func_class@XN@std@@AEBAPEAV?$_Func_base@XN@2@XZ
	?_Getimpl@?$_Func_class@XPEAVInputCustomer_base@gde@@@std@@AEBAPEAV?$_Func_base@XPEAVInputCustomer_base@gde@@@2@XZ
	?_Getimpl@?$_Func_class@XPEAVObject@gde@@@std@@AEBAPEAV?$_Func_base@XPEAVObject@gde@@@2@XZ
	?_Getimpl@?$_Func_class@XV?$basic_string@DU?$char_traits@D@std@@V?$allocator@D@2@@std@@PEAUInputAction@input@gde@@_N@std@@AEBAPEAV?$_Func_base@XV?$basic_string@DU?$char_traits@D@std@@V?$allocator@D@2@@std@@PEAUInputAction@input@gde@@_N@2@XZ
	?_Insert_new_node_before@?$_Hash@V?$_Umap_traits@PEBDUMaterialOverride@rendering@gde@@V?$_Uhash_compare@PEBDU?$hash@PEBD@std@@U?$equal_to@PEBD@2@@std@@V?$allocator@U?$pair@QEBDUMaterialOverride@rendering@gde@@@std@@@5@$0A@@std@@@std@@IEAAPEAU?$_List_node@U?$pair@QEBDUMaterialOverride@rendering@gde@@@std@@PEAX@2@_KQEAU32@1@Z
	?_Insert_new_node_before@?$_Hash@V?$_Umap_traits@V?$basic_string@DU?$char_traits@D@std@@V?$allocator@D@2@@std@@V?$list@PEAVActionImplementation_base@input@gde@@V?$allocator@PEAVActionImplementation_base@input@gde@@@std@@@2@V?$_Uhash_compare@V?$basic_string@DU?$char_traits@D@std@@V?$allocator@D@2@@std@@U?$hash@V?$basic_string@DU?$char_traits@D@std@@V?$allocator@D@2@@std@@@2@U?$equal_to@V?$basic_string@DU?$char_traits@D@std@@V?$allocator@D@2@@std@@@2@@2@V?$allocator@U?$pair@$$CBV?$basic_string@DU?$char_traits@D@std@@V?$allocator@D@2@@std@@V?$list@PEAVActionImplementation_base@input@gde@@V?$allocator@PEAVActionImplementation_base@input@gde@@@std@@@2@@std@@@2@$0A@@std@@@std@@IEAAPEAU?$_List_node@U?$pair@$$CBV?$basic_string@DU?$char_traits@D@std@@V?$allocator@D@2@@std@@V?$list@PEAVActionImplementation_base@input@gde@@V?$allocator@PEAVActionImplementation_base@input@gde@@@std@@@2@@std@@PEAX@2@_KQEAU32@1@Z
	?_Large_mode_engaged@?$_String_val@U?$_Simple_types@D@std@@@std@@QEBA_NXZ
	?_Local@?$_Func_class@XN@std@@AEBA_NXZ
	?_Local@?$_Func_class@XPEAVInputCustomer_base@gde@@@std@@AEBA_NXZ
	?_Local@?$_Func_class@XPEAVObject@gde@@@std@@AEBA_NXZ
	?_Local@?$_Func_class@XV?$basic_string@DU?$char_traits@D@std@@V?$allocator@D@2@@std@@PEAUInputAction@input@gde@@_N@std@@AEBA_NXZ
	?_Make_iter@?$list@U?$pair@$$CBV?$basic_string@DU?$char_traits@D@std@@V?$allocator@D@2@@std@@V?$list@PEAVActionImplementation_base@input@gde@@V?$allocator@PEAVActionImplementation_base@input@gde@@@std@@@2@@std@@V?$allocator@U?$pair@$$CBV?$basic_string@DU?$char_traits@D@std@@V?$allocator@D@2@@std@@V?$list@PEAVActionImplementation_base@input@gde@@V?$allocator@PEAVActionImplementation_base@input@gde@@@std@@@2@@std@@@2@@std@@QEBA?AV?$_List_iterator@V?$_List_val@U?$_List_simple_types@U?$pair@$$CBV?$basic_string@DU?$char_traits@D@std@@V?$allocator@D@2@@std@@V?$list@PEAVActionImplementation_base@input@gde@@V?$allocator@PEAVActionImplementation_base@input@gde@@@std@@@2@@std@@@std@@@std@@@2@PEAU?$_List_node@U?$pair@$$CBV?$basic_string@DU?$char_traits@D@std@@V?$allocator@D@2@@std@@V?$list@PEAVActionImplementation_base@input@gde@@V?$allocator@PEAVActionImplementation_base@input@gde@@@std@@@2@@std@@PEAX@2@@Z
	?_Make_iter@?$list@U?$pair@QEBDUMaterialOverride@rendering@gde@@@std@@V?$allocator@U?$pair@QEBDUMaterialOverride@rendering@gde@@@std@@@2@@std@@QEBA?AV?$_List_iterator@V?$_List_val@U?$_List_simple_types@U?$pair@QEBDUMaterialOverride@rendering@gde@@@std@@@std@@@std@@@2@PEAU?$_List_node@U?$pair@QEBDUMaterialOverride@rendering@gde@@@std@@PEAX@2@@Z
	?_Max_bucket_size@?$_Hash@V?$_Umap_traits@PEBDUMaterialOverride@rendering@gde@@V?$_Uhash_compare@PEBDU?$hash@PEBD@std@@U?$equal_to@PEBD@2@@std@@V?$allocator@U?$pair@QEBDUMaterialOverride@rendering@gde@@@std@@@5@$0A@@std@@@std@@IEBAAEBMXZ
	?_Max_bucket_size@?$_Hash@V?$_Umap_traits@V?$basic_string@DU?$char_traits@D@std@@V?$allocator@D@2@@std@@V?$list@PEAVActionImplementation_base@input@gde@@V?$allocator@PEAVActionImplementation_base@input@gde@@@std@@@2@V?$_Uhash_compare@V?$basic_string@DU?$char_traits@D@std@@V?$allocator@D@2@@std@@U?$hash@V?$basic_string@DU?$char_traits@D@std@@V?$allocator@D@2@@std@@@2@U?$equal_to@V?$basic_string@DU?$char_traits@D@std@@V?$allocator@D@2@@std@@@2@@2@V?$allocator@U?$pair@$$CBV?$basic_string@DU?$char_traits@D@std@@V?$allocator@D@2@@std@@V?$list@PEAVActionImplementation_base@input@gde@@V?$allocator@PEAVActionImplementation_base@input@gde@@@std@@@2@@std@@@2@$0A@@std@@@std@@IEAAAEAMXZ
	?_Max_bucket_size@?$_Hash@V?$_Umap_traits@V?$basic_string@DU?$char_traits@D@std@@V?$allocator@D@2@@std@@V?$list@PEAVActionImplementation_base@input@gde@@V?$allocator@PEAVActionImplementation_base@input@gde@@@std@@@2@V?$_Uhash_compare@V?$basic_string@DU?$char_traits@D@std@@V?$allocator@D@2@@std@@U?$hash@V?$basic_string@DU?$char_traits@D@std@@V?$allocator@D@2@@std@@@2@U?$equal_to@V?$basic_string@DU?$char_traits@D@std@@V?$allocator@D@2@@std@@@2@@2@V?$allocator@U?$pair@$$CBV?$basic_string@DU?$char_traits@D@std@@V?$allocator@D@2@@std@@V?$list@PEAVActionImplementation_base@input@gde@@V?$allocator@PEAVActionImplementation_base@input@gde@@@std@@@2@@std@@@2@$0A@@std@@@std@@IEBAAEBMXZ
	?_Min_load_factor_buckets@?$_Hash@V?$_Umap_traits@PEBDUMaterialOverride@rendering@gde@@V?$_Uhash_compare@PEBDU?$hash@PEBD@std@@U?$equal_to@PEBD@2@@std@@V?$allocator@U?$pair@QEBDUMaterialOverride@rendering@gde@@@std@@@5@$0A@@std@@@std@@IEBA_K_K@Z
	?_Min_load_factor_buckets@?$_Hash@V?$_Umap_traits@V?$basic_string@DU?$char_traits@D@std@@V?$allocator@D@2@@std@@V?$list@PEAVActionImplementation_base@input@gde@@V?$allocator@PEAVActionImplementation_base@input@gde@@@std@@@2@V?$_Uhash_compare@V?$basic_string@DU?$char_traits@D@std@@V?$allocator@D@2@@std@@U?$hash@V?$basic_string@DU?$char_traits@D@std@@V?$allocator@D@2@@std@@@2@U?$equal_to@V?$basic_string@DU?$char_traits@D@std@@V?$allocator@D@2@@std@@@2@@2@V?$allocator@U?$pair@$$CBV?$basic_string@DU?$char_traits@D@std@@V?$allocator@D@2@@std@@V?$list@PEAVActionImplementation_base@input@gde@@V?$allocator@PEAVActionImplementation_base@input@gde@@@std@@@2@@std@@@2@$0A@@std@@@std@@IEBA_K_K@Z
	?_Myptr@?$_String_val@U?$_Simple_types@D@std@@@std@@QEBAPEBDXZ
	?_Orphan_all@_Container_base12@std@@QEAAXXZ
	?_Orphan_all_locked_v3@_Container_base12@std@@AEAAXXZ
	?_Orphan_all_unlocked_v3@_Container_base12@std@@AEAAXXZ
	?_Orphan_me_locked_v3@_Iterator_base12@std@@AEAAXXZ
	?_Orphan_me_unlocked_v3@_Iterator_base12@std@@AEAAXXZ
	?_Orphan_non_end@?$_List_val@U?$_List_simple_types@PEAVActionImplementation_base@input@gde@@@std@@@std@@QEAAXXZ
	?_Orphan_non_end@?$_List_val@U?$_List_simple_types@U?$pair@$$CBV?$basic_string@DU?$char_traits@D@std@@V?$allocator@D@2@@std@@V?$list@PEAVActionImplementation_base@input@gde@@V?$allocator@PEAVActionImplementation_base@input@gde@@@std@@@2@@std@@@std@@@std@@QEAAXXZ
	?_Orphan_non_end@?$_List_val@U?$_List_simple_types@U?$pair@QEBDUMaterialOverride@rendering@gde@@@std@@@std@@@std@@QEAAXXZ
	?_Orphan_ptr2@?$_List_val@U?$_List_simple_types@PEAVEarlyUpdate@gde@@@std@@@std@@QEAAXPEAU?$_List_node@PEAVEarlyUpdate@gde@@PEAX@2@@Z
	?_Orphan_ptr2@?$_List_val@U?$_List_simple_types@PEAVInputPlayer@gde@@@std@@@std@@QEAAXPEAU?$_List_node@PEAVInputPlayer@gde@@PEAX@2@@Z
	?_Orphan_ptr2@?$_List_val@U?$_List_simple_types@PEAVLateUpdate@gde@@@std@@@std@@QEAAXPEAU?$_List_node@PEAVLateUpdate@gde@@PEAX@2@@Z
	?_Orphan_ptr2@?$_List_val@U?$_List_simple_types@PEAVLightObject@gde@@@std@@@std@@QEAAXPEAU?$_List_node@PEAVLightObject@gde@@PEAX@2@@Z
	?_Orphan_ptr2@?$_List_val@U?$_List_simple_types@PEAVUpdate@gde@@@std@@@std@@QEAAXPEAU?$_List_node@PEAVUpdate@gde@@PEAX@2@@Z
	?_Orphan_range@?$vector@UMaterialTexture@rendering@gde@@V?$allocator@UMaterialTexture@rendering@gde@@@std@@@std@@AEBAXPEAUMaterialTexture@rendering@gde@@0@Z
	?_Orphan_range_locked@?$vector@UMaterialTexture@rendering@gde@@V?$allocator@UMaterialTexture@rendering@gde@@@std@@@std@@AEBAXPEAUMaterialTexture@rendering@gde@@0@Z
	?_Orphan_range_unlocked@?$vector@UMaterialTexture@rendering@gde@@V?$allocator@UMaterialTexture@rendering@gde@@@std@@@std@@AEBAXPEAUMaterialTexture@rendering@gde@@0@Z
	?_Rehash_for_1@?$_Hash@V?$_Umap_traits@PEBDUMaterialOverride@rendering@gde@@V?$_Uhash_compare@PEBDU?$hash@PEBD@std@@U?$equal_to@PEBD@2@@std@@V?$allocator@U?$pair@QEBDUMaterialOverride@rendering@gde@@@std@@@5@$0A@@std@@@std@@IEAAXXZ
	?_Rehash_for_1@?$_Hash@V?$_Umap_traits@V?$basic_string@DU?$char_traits@D@std@@V?$allocator@D@2@@std@@V?$list@PEAVActionImplementation_base@input@gde@@V?$allocator@PEAVActionImplementation_base@input@gde@@@std@@@2@V?$_Uhash_compare@V?$basic_string@DU?$char_traits@D@std@@V?$allocator@D@2@@std@@U?$hash@V?$basic_string@DU?$char_traits@D@std@@V?$allocator@D@2@@std@@@2@U?$equal_to@V?$basic_string@DU?$char_traits@D@std@@V?$allocator@D@2@@std@@@2@@2@V?$allocator@U?$pair@$$CBV?$basic_string@DU?$char_traits@D@std@@V?$allocator@D@2@@std@@V?$list@PEAVActionImplementation_base@input@gde@@V?$allocator@PEAVActionImplementation_base@input@gde@@@std@@@2@@std@@@2@$0A@@std@@@std@@IEAAXXZ
	?_Release@?$_Alloc_construct_ptr@V?$allocator@U?$_List_node@PEAVActionImplementation_base@input@gde@@PEAX@std@@@std@@@std@@QEAAPEAU?$_List_node@PEAVActionImplementation_base@input@gde@@PEAX@2@XZ
	?_Release@?$_Alloc_construct_ptr@V?$allocator@U?$_List_node@U?$pair@$$CBV?$basic_string@DU?$char_traits@D@std@@V?$allocator@D@2@@std@@V?$list@PEAVActionImplementation_base@input@gde@@V?$allocator@PEAVActionImplementation_base@input@gde@@@std@@@2@@std@@PEAX@std@@@std@@@std@@QEAAPEAU?$_List_node@U?$pair@$$CBV?$basic_string@DU?$char_traits@D@std@@V?$allocator@D@2@@std@@V?$list@PEAVActionImplementation_base@input@gde@@V?$allocator@PEAVActionImplementation_base@input@gde@@@std@@@2@@std@@PEAX@2@XZ
	?_Release@?$_Alloc_construct_ptr@V?$allocator@U?$_List_node@U?$pair@QEBDUMaterialOverride@rendering@gde@@@std@@PEAX@std@@@std@@@std@@QEAAPEAU?$_List_node@U?$pair@QEBDUMaterialOverride@rendering@gde@@@std@@PEAX@2@XZ
	?_Release@?$_Uninitialized_backout@PEAV?$_List_unchecked_iterator@V?$_List_val@U?$_List_simple_types@U?$pair@$$CBV?$basic_string@DU?$char_traits@D@std@@V?$allocator@D@2@@std@@V?$list@PEAVActionImplementation_base@input@gde@@V?$allocator@PEAVActionImplementation_base@input@gde@@@std@@@2@@std@@@std@@@std@@@std@@@std@@QEAAPEAV?$_List_unchecked_iterator@V?$_List_val@U?$_List_simple_types@U?$pair@$$CBV?$basic_string@DU?$char_traits@D@std@@V?$allocator@D@2@@std@@V?$list@PEAVActionImplementation_base@input@gde@@V?$allocator@PEAVActionImplementation_base@input@gde@@@std@@@2@@std@@@std@@@std@@@2@XZ
	?_Release@?$_Uninitialized_backout@PEAV?$_List_unchecked_iterator@V?$_List_val@U?$_List_simple_types@U?$pair@QEBDUMaterialOverride@rendering@gde@@@std@@@std@@@std@@@std@@@std@@QEAAPEAV?$_List_unchecked_iterator@V?$_List_val@U?$_List_simple_types@U?$pair@QEBDUMaterialOverride@rendering@gde@@@std@@@std@@@std@@@2@XZ
	?_Release@?$_Uninitialized_backout_al@V?$allocator@PEAVDrawCall@rendering@gde@@@std@@@std@@QEAAPEAPEAVDrawCall@rendering@gde@@XZ
	?_Release@?$_Uninitialized_backout_al@V?$allocator@UMaterialTexture@rendering@gde@@@std@@@std@@QEAAPEAUMaterialTexture@rendering@gde@@XZ
	?_Release@_Basic_container_proxy_ptr12@std@@QEAAXXZ
	?_Set@?$_Func_class@XN@std@@AEAAXPEAV?$_Func_base@XN@2@@Z
	?_Set@?$_Func_class@XPEAVInputCustomer_base@gde@@@std@@AEAAXPEAV?$_Func_base@XPEAVInputCustomer_base@gde@@@2@@Z
	?_Set@?$_Func_class@XPEAVObject@gde@@@std@@AEAAXPEAV?$_Func_base@XPEAVObject@gde@@@2@@Z
	?_Set@?$_Func_class@XV?$basic_string@DU?$char_traits@D@std@@V?$allocator@D@2@@std@@PEAUInputAction@input@gde@@_N@std@@AEAAXPEAV?$_Func_base@XV?$basic_string@DU?$char_traits@D@std@@V?$allocator@D@2@@std@@PEAUInputAction@input@gde@@_N@2@@Z
	?_Swap_proxy_and_iterators@?$basic_string@DU?$char_traits@D@std@@V?$allocator@D@2@@std@@AEAAXAEAV12@@Z
	?_Swap_proxy_and_iterators@_Container_base12@std@@QEAAXAEAU12@@Z
	?_Swap_proxy_and_iterators_locked@_Container_base12@std@@AEAAXAEAU12@@Z
	?_Swap_proxy_and_iterators_unlocked@_Container_base12@std@@AEAAXAEAU12@@Z
	?_Swap_val@?$list@PEAVActionImplementation_base@input@gde@@V?$allocator@PEAVActionImplementation_base@input@gde@@@std@@@std@@AEAAXAEAV12@@Z
	?_Switch_to_buf@_Bxty@?$_String_val@U?$_Simple_types@D@std@@@std@@QEAAXXZ
	?_Take_contents@?$basic_string@DU?$char_traits@D@std@@V?$allocator@D@2@@std@@AEAAXAEAV12@@Z
	?_Throw_bad_array_new_length@std@@YAXXZ
	?_Tidy@?$_Func_class@XN@std@@IEAAXXZ
	?_Tidy@?$_Func_class@XPEAVInputCustomer_base@gde@@@std@@IEAAXXZ
	?_Tidy@?$_Func_class@XPEAVObject@gde@@@std@@IEAAXXZ
	?_Tidy@?$_Func_class@XV?$basic_string@DU?$char_traits@D@std@@V?$allocator@D@2@@std@@PEAUInputAction@input@gde@@_N@std@@IEAAXXZ
	?_Tidy@?$_Hash_vec@V?$allocator@V?$_List_unchecked_iterator@V?$_List_val@U?$_List_simple_types@U?$pair@$$CBV?$basic_string@DU?$char_traits@D@std@@V?$allocator@D@2@@std@@V?$list@PEAVActionImplementation_base@input@gde@@V?$allocator@PEAVActionImplementation_base@input@gde@@@std@@@2@@std@@@std@@@std@@@std@@@std@@@std@@QEAAXXZ
	?_Tidy@?$list@PEAVActionImplementation_base@input@gde@@V?$allocator@PEAVActionImplementation_base@input@gde@@@std@@@std@@AEAAXXZ
	?_Tidy@?$list@PEAVHandler@gde@@V?$allocator@PEAVHandler@gde@@@std@@@std@@AEAAXXZ
	?_Tidy@?$list@PEAVObject@gde@@V?$allocator@PEAVObject@gde@@@std@@@std@@AEAAXXZ
	?_Tidy@?$list@U?$pair@$$CBV?$basic_string@DU?$char_traits@D@std@@V?$allocator@D@2@@std@@V?$list@PEAVActionImplementation_base@input@gde@@V?$allocator@PEAVActionImplementation_base@input@gde@@@std@@@2@@std@@V?$allocator@U?$pair@$$CBV?$basic_string@DU?$char_traits@D@std@@V?$allocator@D@2@@std@@V?$list@PEAVActionImplementation_base@input@gde@@V?$allocator@PEAVActionImplementation_base@input@gde@@@std@@@2@@std@@@2@@std@@AEAAXXZ
	?_Tidy@?$vector@PEAHV?$allocator@PEAH@std@@@std@@AEAAXXZ
	?_Tidy@?$vector@PEAMV?$allocator@PEAM@std@@@std@@AEAAXXZ
	?_Tidy@?$vector@PEAVDrawCall@rendering@gde@@V?$allocator@PEAVDrawCall@rendering@gde@@@std@@@std@@AEAAXXZ
	?_Tidy_deallocate@?$basic_string@DU?$char_traits@D@std@@V?$allocator@D@2@@std@@AEAAXXZ
	?_Transfer_back@_List_node_remove_op@?$list@PEAVEarlyUpdate@gde@@V?$allocator@PEAVEarlyUpdate@gde@@@std@@@std@@QEAAPEAU?$_List_node@PEAVEarlyUpdate@gde@@PEAX@3@QEAU43@@Z
	?_Transfer_back@_List_node_remove_op@?$list@PEAVInputPlayer@gde@@V?$allocator@PEAVInputPlayer@gde@@@std@@@std@@QEAAPEAU?$_List_node@PEAVInputPlayer@gde@@PEAX@3@QEAU43@@Z
	?_Transfer_back@_List_node_remove_op@?$list@PEAVLateUpdate@gde@@V?$allocator@PEAVLateUpdate@gde@@@std@@@std@@QEAAPEAU?$_List_node@PEAVLateUpdate@gde@@PEAX@3@QEAU43@@Z
	?_Transfer_back@_List_node_remove_op@?$list@PEAVLightObject@gde@@V?$allocator@PEAVLightObject@gde@@@std@@@std@@QEAAPEAU?$_List_node@PEAVLightObject@gde@@PEAX@3@QEAU43@@Z
	?_Transfer_back@_List_node_remove_op@?$list@PEAVUpdate@gde@@V?$allocator@PEAVUpdate@gde@@@std@@@std@@QEAAPEAU?$_List_node@PEAVUpdate@gde@@PEAX@3@QEAU43@@Z
	?_Transfer_before@?$_List_node_emplace_op2@V?$allocator@U?$_List_node@PEAVActionImplementation_base@input@gde@@PEAX@std@@@std@@@std@@QEAAPEAU?$_List_node@PEAVActionImplementation_base@input@gde@@PEAX@2@QEAU32@@Z
	?_Transfer_before@?$_List_node_emplace_op2@V?$allocator@U?$_List_node@PEAVEarlyUpdate@gde@@PEAX@std@@@std@@@std@@QEAAPEAU?$_List_node@PEAVEarlyUpdate@gde@@PEAX@2@QEAU32@@Z
	?_Transfer_before@?$_List_node_emplace_op2@V?$allocator@U?$_List_node@PEAVInputPlayer@gde@@PEAX@std@@@std@@@std@@QEAAPEAU?$_List_node@PEAVInputPlayer@gde@@PEAX@2@QEAU32@@Z
	?_Transfer_before@?$_List_node_emplace_op2@V?$allocator@U?$_List_node@PEAVLateUpdate@gde@@PEAX@std@@@std@@@std@@QEAAPEAU?$_List_node@PEAVLateUpdate@gde@@PEAX@2@QEAU32@@Z
	?_Transfer_before@?$_List_node_emplace_op2@V?$allocator@U?$_List_node@PEAVLightObject@gde@@PEAX@std@@@std@@@std@@QEAAPEAU?$_List_node@PEAVLightObject@gde@@PEAX@2@QEAU32@@Z
	?_Transfer_before@?$_List_node_emplace_op2@V?$allocator@U?$_List_node@PEAVObject@gde@@PEAX@std@@@std@@@std@@QEAAPEAU?$_List_node@PEAVObject@gde@@PEAX@2@QEAU32@@Z
	?_Transfer_before@?$_List_node_emplace_op2@V?$allocator@U?$_List_node@PEAVUpdate@gde@@PEAX@std@@@std@@@std@@QEAAPEAU?$_List_node@PEAVUpdate@gde@@PEAX@2@QEAU32@@Z
	?_Unchecked_begin@?$_Hash@V?$_Umap_traits@PEBDUMaterialOverride@rendering@gde@@V?$_Uhash_compare@PEBDU?$hash@PEBD@std@@U?$equal_to@PEBD@2@@std@@V?$allocator@U?$pair@QEBDUMaterialOverride@rendering@gde@@@std@@@5@$0A@@std@@@std@@QEAA?AV?$_List_unchecked_iterator@V?$_List_val@U?$_List_simple_types@U?$pair@QEBDUMaterialOverride@rendering@gde@@@std@@@std@@@std@@@2@XZ
	?_Unchecked_begin@?$_Hash@V?$_Umap_traits@V?$basic_string@DU?$char_traits@D@std@@V?$allocator@D@2@@std@@V?$list@PEAVActionImplementation_base@input@gde@@V?$allocator@PEAVActionImplementation_base@input@gde@@@std@@@2@V?$_Uhash_compare@V?$basic_string@DU?$char_traits@D@std@@V?$allocator@D@2@@std@@U?$hash@V?$basic_string@DU?$char_traits@D@std@@V?$allocator@D@2@@std@@@2@U?$equal_to@V?$basic_string@DU?$char_traits@D@std@@V?$allocator@D@2@@std@@@2@@2@V?$allocator@U?$pair@$$CBV?$basic_string@DU?$char_traits@D@std@@V?$allocator@D@2@@std@@V?$list@PEAVActionImplementation_base@input@gde@@V?$allocator@PEAVActionImplementation_base@input@gde@@@std@@@2@@std@@@2@$0A@@std@@@std@@QEAA?AV?$_List_unchecked_iterator@V?$_List_val@U?$_List_simple_types@U?$pair@$$CBV?$basic_string@DU?$char_traits@D@std@@V?$allocator@D@2@@std@@V?$list@PEAVActionImplementation_base@input@gde@@V?$allocator@PEAVActionImplementation_base@input@gde@@@std@@@2@@std@@@std@@@std@@@2@XZ
	?_Unchecked_begin@?$list@PEAVActionImplementation_base@input@gde@@V?$allocator@PEAVActionImplementation_base@input@gde@@@std@@@std@@QEAA?AV?$_List_unchecked_iterator@V?$_List_val@U?$_List_simple_types@PEAVActionImplementation_base@input@gde@@@std@@@std@@@2@XZ
	?_Unchecked_begin@?$list@PEAVActionImplementation_base@input@gde@@V?$allocator@PEAVActionImplementation_base@input@gde@@@std@@@std@@QEBA?AV?$_List_unchecked_const_iterator@V?$_List_val@U?$_List_simple_types@PEAVActionImplementation_base@input@gde@@@std@@@std@@U_Iterator_base0@2@@2@XZ
	?_Unchecked_begin@?$list@PEAVControllerBase@gde@@V?$allocator@PEAVControllerBase@gde@@@std@@@std@@QEAA?AV?$_List_unchecked_iterator@V?$_List_val@U?$_List_simple_types@PEAVControllerBase@gde@@@std@@@std@@@2@XZ
	?_Unchecked_begin@?$list@PEAVEarlyUpdate@gde@@V?$allocator@PEAVEarlyUpdate@gde@@@std@@@std@@QEAA?AV?$_List_unchecked_iterator@V?$_List_val@U?$_List_simple_types@PEAVEarlyUpdate@gde@@@std@@@std@@@2@XZ
	?_Unchecked_begin@?$list@PEAVHandler@gde@@V?$allocator@PEAVHandler@gde@@@std@@@std@@QEAA?AV?$_List_unchecked_iterator@V?$_List_val@U?$_List_simple_types@PEAVHandler@gde@@@std@@@std@@@2@XZ
	?_Unchecked_begin@?$list@PEAVInputPlayer@gde@@V?$allocator@PEAVInputPlayer@gde@@@std@@@std@@QEAA?AV?$_List_unchecked_iterator@V?$_List_val@U?$_List_simple_types@PEAVInputPlayer@gde@@@std@@@std@@@2@XZ
	?_Unchecked_begin@?$list@PEAVLateUpdate@gde@@V?$allocator@PEAVLateUpdate@gde@@@std@@@std@@QEAA?AV?$_List_unchecked_iterator@V?$_List_val@U?$_List_simple_types@PEAVLateUpdate@gde@@@std@@@std@@@2@XZ
	?_Unchecked_begin@?$list@PEAVLightObject@gde@@V?$allocator@PEAVLightObject@gde@@@std@@@std@@QEAA?AV?$_List_unchecked_iterator@V?$_List_val@U?$_List_simple_types@PEAVLightObject@gde@@@std@@@std@@@2@XZ
	?_Unchecked_begin@?$list@PEAVObject@gde@@V?$allocator@PEAVObject@gde@@@std@@@std@@QEAA?AV?$_List_unchecked_iterator@V?$_List_val@U?$_List_simple_types@PEAVObject@gde@@@std@@@std@@@2@XZ
	?_Unchecked_begin@?$list@PEAVUpdate@gde@@V?$allocator@PEAVUpdate@gde@@@std@@@std@@QEAA?AV?$_List_unchecked_iterator@V?$_List_val@U?$_List_simple_types@PEAVUpdate@gde@@@std@@@std@@@2@XZ
	?_Unchecked_begin@?$list@U?$pair@$$CBV?$basic_string@DU?$char_traits@D@std@@V?$allocator@D@2@@std@@V?$list@PEAVActionImplementation_base@input@gde@@V?$allocator@PEAVActionImplementation_base@input@gde@@@std@@@2@@std@@V?$allocator@U?$pair@$$CBV?$basic_string@DU?$char_traits@D@std@@V?$allocator@D@2@@std@@V?$list@PEAVActionImplementation_base@input@gde@@V?$allocator@PEAVActionImplementation_base@input@gde@@@std@@@2@@std@@@2@@std@@QEAA?AV?$_List_unchecked_iterator@V?$_List_val@U?$_List_simple_types@U?$pair@$$CBV?$basic_string@DU?$char_traits@D@std@@V?$allocator@D@2@@std@@V?$list@PEAVActionImplementation_base@input@gde@@V?$allocator@PEAVActionImplementation_base@input@gde@@@std@@@2@@std@@@std@@@std@@@2@XZ
	?_Unchecked_begin@?$list@U?$pair@QEBDUMaterialOverride@rendering@gde@@@std@@V?$allocator@U?$pair@QEBDUMaterialOverride@rendering@gde@@@std@@@2@@std@@QEAA?AV?$_List_unchecked_iterator@V?$_List_val@U?$_List_simple_types@U?$pair@QEBDUMaterialOverride@rendering@gde@@@std@@@std@@@std@@@2@XZ
	?_Unchecked_end@?$_Hash@V?$_Umap_traits@PEBDUMaterialOverride@rendering@gde@@V?$_Uhash_compare@PEBDU?$hash@PEBD@std@@U?$equal_to@PEBD@2@@std@@V?$allocator@U?$pair@QEBDUMaterialOverride@rendering@gde@@@std@@@5@$0A@@std@@@std@@QEAA?AV?$_List_unchecked_iterator@V?$_List_val@U?$_List_simple_types@U?$pair@QEBDUMaterialOverride@rendering@gde@@@std@@@std@@@std@@@2@XZ
	?_Unchecked_end@?$_Hash@V?$_Umap_traits@V?$basic_string@DU?$char_traits@D@std@@V?$allocator@D@2@@std@@V?$list@PEAVActionImplementation_base@input@gde@@V?$allocator@PEAVActionImplementation_base@input@gde@@@std@@@2@V?$_Uhash_compare@V?$basic_string@DU?$char_traits@D@std@@V?$allocator@D@2@@std@@U?$hash@V?$basic_string@DU?$char_traits@D@std@@V?$allocator@D@2@@std@@@2@U?$equal_to@V?$basic_string@DU?$char_traits@D@std@@V?$allocator@D@2@@std@@@2@@2@V?$allocator@U?$pair@$$CBV?$basic_string@DU?$char_traits@D@std@@V?$allocator@D@2@@std@@V?$list@PEAVActionImplementation_base@input@gde@@V?$allocator@PEAVActionImplementation_base@input@gde@@@std@@@2@@std@@@2@$0A@@std@@@std@@QEAA?AV?$_List_unchecked_iterator@V?$_List_val@U?$_List_simple_types@U?$pair@$$CBV?$basic_string@DU?$char_traits@D@std@@V?$allocator@D@2@@std@@V?$list@PEAVActionImplementation_base@input@gde@@V?$allocator@PEAVActionImplementation_base@input@gde@@@std@@@2@@std@@@std@@@std@@@2@XZ
	?_Unchecked_end@?$list@PEAVActionImplementation_base@input@gde@@V?$allocator@PEAVActionImplementation_base@input@gde@@@std@@@std@@QEAA?AV?$_List_unchecked_iterator@V?$_List_val@U?$_List_simple_types@PEAVActionImplementation_base@input@gde@@@std@@@std@@@2@XZ
	?_Unchecked_end@?$list@PEAVActionImplementation_base@input@gde@@V?$allocator@PEAVActionImplementation_base@input@gde@@@std@@@std@@QEBA?AV?$_List_unchecked_const_iterator@V?$_List_val@U?$_List_simple_types@PEAVActionImplementation_base@input@gde@@@std@@@std@@U_Iterator_base0@2@@2@XZ
	?_Unchecked_end@?$list@PEAVControllerBase@gde@@V?$allocator@PEAVControllerBase@gde@@@std@@@std@@QEAA?AV?$_List_unchecked_iterator@V?$_List_val@U?$_List_simple_types@PEAVControllerBase@gde@@@std@@@std@@@2@XZ
	?_Unchecked_end@?$list@PEAVEarlyUpdate@gde@@V?$allocator@PEAVEarlyUpdate@gde@@@std@@@std@@QEAA?AV?$_List_unchecked_iterator@V?$_List_val@U?$_List_simple_types@PEAVEarlyUpdate@gde@@@std@@@std@@@2@XZ
	?_Unchecked_end@?$list@PEAVHandler@gde@@V?$allocator@PEAVHandler@gde@@@std@@@std@@QEAA?AV?$_List_unchecked_iterator@V?$_List_val@U?$_List_simple_types@PEAVHandler@gde@@@std@@@std@@@2@XZ
	?_Unchecked_end@?$list@PEAVInputPlayer@gde@@V?$allocator@PEAVInputPlayer@gde@@@std@@@std@@QEAA?AV?$_List_unchecked_iterator@V?$_List_val@U?$_List_simple_types@PEAVInputPlayer@gde@@@std@@@std@@@2@XZ
	?_Unchecked_end@?$list@PEAVLateUpdate@gde@@V?$allocator@PEAVLateUpdate@gde@@@std@@@std@@QEAA?AV?$_List_unchecked_iterator@V?$_List_val@U?$_List_simple_types@PEAVLateUpdate@gde@@@std@@@std@@@2@XZ
	?_Unchecked_end@?$list@PEAVLightObject@gde@@V?$allocator@PEAVLightObject@gde@@@std@@@std@@QEAA?AV?$_List_unchecked_iterator@V?$_List_val@U?$_List_simple_types@PEAVLightObject@gde@@@std@@@std@@@2@XZ
	?_Unchecked_end@?$list@PEAVObject@gde@@V?$allocator@PEAVObject@gde@@@std@@@std@@QEAA?AV?$_List_unchecked_iterator@V?$_List_val@U?$_List_simple_types@PEAVObject@gde@@@std@@@std@@@2@XZ
	?_Unchecked_end@?$list@PEAVUpdate@gde@@V?$allocator@PEAVUpdate@gde@@@std@@@std@@QEAA?AV?$_List_unchecked_iterator@V?$_List_val@U?$_List_simple_types@PEAVUpdate@gde@@@std@@@std@@@2@XZ
	?_Unchecked_end@?$list@U?$pair@$$CBV?$basic_string@DU?$char_traits@D@std@@V?$allocator@D@2@@std@@V?$list@PEAVActionImplementation_base@input@gde@@V?$allocator@PEAVActionImplementation_base@input@gde@@@std@@@2@@std@@V?$allocator@U?$pair@$$CBV?$basic_string@DU?$char_traits@D@std@@V?$allocator@D@2@@std@@V?$list@PEAVActionImplementation_base@input@gde@@V?$allocator@PEAVActionImplementation_base@input@gde@@@std@@@2@@std@@@2@@std@@QEAA?AV?$_List_unchecked_iterator@V?$_List_val@U?$_List_simple_types@U?$pair@$$CBV?$basic_string@DU?$char_traits@D@std@@V?$allocator@D@2@@std@@V?$list@PEAVActionImplementation_base@input@gde@@V?$allocator@PEAVActionImplementation_base@input@gde@@@std@@@2@@std@@@std@@@std@@@2@XZ
	?_Unchecked_end@?$list@U?$pair@QEBDUMaterialOverride@rendering@gde@@@std@@V?$allocator@U?$pair@QEBDUMaterialOverride@rendering@gde@@@std@@@2@@std@@QEAA?AV?$_List_unchecked_iterator@V?$_List_val@U?$_List_simple_types@U?$pair@QEBDUMaterialOverride@rendering@gde@@@std@@@std@@@std@@@2@XZ
	?_Unchecked_erase@?$_Hash@V?$_Umap_traits@PEBDUMaterialOverride@rendering@gde@@V?$_Uhash_compare@PEBDU?$hash@PEBD@std@@U?$equal_to@PEBD@2@@std@@V?$allocator@U?$pair@QEBDUMaterialOverride@rendering@gde@@@std@@@5@$0A@@std@@@std@@AEAAPEAU?$_List_node@U?$pair@QEBDUMaterialOverride@rendering@gde@@@std@@PEAX@2@PEAU32@QEAU32@@Z
	?_Unchecked_erase@?$_Hash@V?$_Umap_traits@V?$basic_string@DU?$char_traits@D@std@@V?$allocator@D@2@@std@@V?$list@PEAVActionImplementation_base@input@gde@@V?$allocator@PEAVActionImplementation_base@input@gde@@@std@@@2@V?$_Uhash_compare@V?$basic_string@DU?$char_traits@D@std@@V?$allocator@D@2@@std@@U?$hash@V?$basic_string@DU?$char_traits@D@std@@V?$allocator@D@2@@std@@@2@U?$equal_to@V?$basic_string@DU?$char_traits@D@std@@V?$allocator@D@2@@std@@@2@@2@V?$allocator@U?$pair@$$CBV?$basic_string@DU?$char_traits@D@std@@V?$allocator@D@2@@std@@V?$list@PEAVActionImplementation_base@input@gde@@V?$allocator@PEAVActionImplementation_base@input@gde@@@std@@@2@@std@@@2@$0A@@std@@@std@@AEAAPEAU?$_List_node@U?$pair@$$CBV?$basic_string@DU?$char_traits@D@std@@V?$allocator@D@2@@std@@V?$list@PEAVActionImplementation_base@input@gde@@V?$allocator@PEAVActionImplementation_base@input@gde@@@std@@@2@@std@@PEAX@2@PEAU32@QEAU32@@Z
	?_Unchecked_erase@?$list@U?$pair@$$CBV?$basic_string@DU?$char_traits@D@std@@V?$allocator@D@2@@std@@V?$list@PEAVActionImplementation_base@input@gde@@V?$allocator@PEAVActionImplementation_base@input@gde@@@std@@@2@@std@@V?$allocator@U?$pair@$$CBV?$basic_string@DU?$char_traits@D@std@@V?$allocator@D@2@@std@@V?$list@PEAVActionImplementation_base@input@gde@@V?$allocator@PEAVActionImplementation_base@input@gde@@@std@@@2@@std@@@2@@std@@AEAAPEAU?$_List_node@U?$pair@$$CBV?$basic_string@DU?$char_traits@D@std@@V?$allocator@D@2@@std@@V?$list@PEAVActionImplementation_base@input@gde@@V?$allocator@PEAVActionImplementation_base@input@gde@@@std@@@2@@std@@PEAX@2@PEAU32@QEAU32@@Z
	?_Unchecked_erase@?$list@U?$pair@QEBDUMaterialOverride@rendering@gde@@@std@@V?$allocator@U?$pair@QEBDUMaterialOverride@rendering@gde@@@std@@@2@@std@@AEAAPEAU?$_List_node@U?$pair@QEBDUMaterialOverride@rendering@gde@@@std@@PEAX@2@PEAU32@QEAU32@@Z
	?_Unchecked_splice@?$_List_val@U?$_List_simple_types@U?$pair@$$CBV?$basic_string@DU?$char_traits@D@std@@V?$allocator@D@2@@std@@V?$list@PEAVActionImplementation_base@input@gde@@V?$allocator@PEAVActionImplementation_base@input@gde@@@std@@@2@@std@@@std@@@std@@SAPEAU?$_List_node@U?$pair@$$CBV?$basic_string@DU?$char_traits@D@std@@V?$allocator@D@2@@std@@V?$list@PEAVActionImplementation_base@input@gde@@V?$allocator@PEAVActionImplementation_base@input@gde@@@std@@@2@@std@@PEAX@2@QEAU32@00@Z
	?_Unchecked_splice@?$_List_val@U?$_List_simple_types@U?$pair@QEBDUMaterialOverride@rendering@gde@@@std@@@std@@@std@@SAPEAU?$_List_node@U?$pair@QEBDUMaterialOverride@rendering@gde@@@std@@PEAX@2@QEAU32@00@Z
	?_Xlen_string@std@@YAXXZ
	?_Xlength@?$vector@PEAVDrawCall@rendering@gde@@V?$allocator@PEAVDrawCall@rendering@gde@@@std@@@std@@CAXXZ
	?_Xlength@?$vector@UMaterialTexture@rendering@gde@@V?$allocator@UMaterialTexture@rendering@gde@@@std@@@std@@CAXXZ
	?__empty_global_delete@@YAXPEAX@Z
	?__empty_global_delete@@YAXPEAX_K@Z
	?allocate@?$allocator@D@std@@QEAAPEAD_K@Z
	?allocate@?$allocator@PEAVDrawCall@rendering@gde@@@std@@QEAAPEAPEAVDrawCall@rendering@gde@@_K@Z
	?allocate@?$allocator@U?$_List_node@PEAVActionImplementation_base@input@gde@@PEAX@std@@@std@@QEAAPEAU?$_List_node@PEAVActionImplementation_base@input@gde@@PEAX@2@_K@Z
	?allocate@?$allocator@U?$_List_node@PEAVEarlyUpdate@gde@@PEAX@std@@@std@@QEAAPEAU?$_List_node@PEAVEarlyUpdate@gde@@PEAX@2@_K@Z
	?allocate@?$allocator@U?$_List_node@PEAVHandler@gde@@PEAX@std@@@std@@QEAAPEAU?$_List_node@PEAVHandler@gde@@PEAX@2@_K@Z
	?allocate@?$allocator@U?$_List_node@PEAVInputPlayer@gde@@PEAX@std@@@std@@QEAAPEAU?$_List_node@PEAVInputPlayer@gde@@PEAX@2@_K@Z
	?allocate@?$allocator@U?$_List_node@PEAVLateUpdate@gde@@PEAX@std@@@std@@QEAAPEAU?$_List_node@PEAVLateUpdate@gde@@PEAX@2@_K@Z
	?allocate@?$allocator@U?$_List_node@PEAVLightObject@gde@@PEAX@std@@@std@@QEAAPEAU?$_List_node@PEAVLightObject@gde@@PEAX@2@_K@Z
	?allocate@?$allocator@U?$_List_node@PEAVObject@gde@@PEAX@std@@@std@@QEAAPEAU?$_List_node@PEAVObject@gde@@PEAX@2@_K@Z
	?allocate@?$allocator@U?$_List_node@PEAVUpdate@gde@@PEAX@std@@@std@@QEAAPEAU?$_List_node@PEAVUpdate@gde@@PEAX@2@_K@Z
	?allocate@?$allocator@U?$_List_node@U?$pair@$$CBV?$basic_string@DU?$char_traits@D@std@@V?$allocator@D@2@@std@@V?$list@PEAVActionImplementation_base@input@gde@@V?$allocator@PEAVActionImplementation_base@input@gde@@@std@@@2@@std@@PEAX@std@@@std@@QEAAPEAU?$_List_node@U?$pair@$$CBV?$basic_string@DU?$char_traits@D@std@@V?$allocator@D@2@@std@@V?$list@PEAVActionImplementation_base@input@gde@@V?$allocator@PEAVActionImplementation_base@input@gde@@@std@@@2@@std@@PEAX@2@_K@Z
	?allocate@?$allocator@U?$_List_node@U?$pair@QEBDUMaterialOverride@rendering@gde@@@std@@PEAX@std@@@std@@QEAAPEAU?$_List_node@U?$pair@QEBDUMaterialOverride@rendering@gde@@@std@@PEAX@2@_K@Z
	?allocate@?$allocator@UMaterialTexture@rendering@gde@@@std@@QEAAPEAUMaterialTexture@rendering@gde@@_K@Z
	?allocate@?$allocator@U_Container_proxy@std@@@std@@QEAAPEAU_Container_proxy@2@_K@Z
	?allocate@?$allocator@V?$_List_unchecked_iterator@V?$_List_val@U?$_List_simple_types@U?$pair@$$CBV?$basic_string@DU?$char_traits@D@std@@V?$allocator@D@2@@std@@V?$list@PEAVActionImplementation_base@input@gde@@V?$allocator@PEAVActionImplementation_base@input@gde@@@std@@@2@@std@@@std@@@std@@@std@@@std@@QEAAPEAV?$_List_unchecked_iterator@V?$_List_val@U?$_List_simple_types@U?$pair@$$CBV?$basic_string@DU?$char_traits@D@std@@V?$allocator@D@2@@std@@V?$list@PEAVActionImplementation_base@input@gde@@V?$allocator@PEAVActionImplementation_base@input@gde@@@std@@@2@@std@@@std@@@std@@@2@_K@Z
	?allocate@?$allocator@V?$_List_unchecked_iterator@V?$_List_val@U?$_List_simple_types@U?$pair@QEBDUMaterialOverride@rendering@gde@@@std@@@std@@@std@@@std@@@std@@QEAAPEAV?$_List_unchecked_iterator@V?$_List_val@U?$_List_simple_types@U?$pair@QEBDUMaterialOverride@rendering@gde@@@std@@@std@@@std@@@2@_K@Z
	?assign@?$_Narrow_char_traits@DH@std@@SAXAEADAEBD@Z
	?begin@?$initializer_list@PEAVDrawCall@rendering@gde@@@std@@QEBAPEBQEAVDrawCall@rendering@gde@@XZ
	?bucket@?$_Hash@V?$_Umap_traits@PEBDUMaterialOverride@rendering@gde@@V?$_Uhash_compare@PEBDU?$hash@PEBD@std@@U?$equal_to@PEBD@2@@std@@V?$allocator@U?$pair@QEBDUMaterialOverride@rendering@gde@@@std@@@5@$0A@@std@@@std@@QEBA_KAEBQEBD@Z
	?bucket@?$_Hash@V?$_Umap_traits@V?$basic_string@DU?$char_traits@D@std@@V?$allocator@D@2@@std@@V?$list@PEAVActionImplementation_base@input@gde@@V?$allocator@PEAVActionImplementation_base@input@gde@@@std@@@2@V?$_Uhash_compare@V?$basic_string@DU?$char_traits@D@std@@V?$allocator@D@2@@std@@U?$hash@V?$basic_string@DU?$char_traits@D@std@@V?$allocator@D@2@@std@@@2@U?$equal_to@V?$basic_string@DU?$char_traits@D@std@@V?$allocator@D@2@@std@@@2@@2@V?$allocator@U?$pair@$$CBV?$basic_string@DU?$char_traits@D@std@@V?$allocator@D@2@@std@@V?$list@PEAVActionImplementation_base@input@gde@@V?$allocator@PEAVActionImplementation_base@input@gde@@@std@@@2@@std@@@2@$0A@@std@@@std@@QEBA_KAEBV?$basic_string@DU?$char_traits@D@std@@V?$allocator@D@2@@2@@Z
	?bucket_count@?$_Hash@V?$_Umap_traits@PEBDUMaterialOverride@rendering@gde@@V?$_Uhash_compare@PEBDU?$hash@PEBD@std@@U?$equal_to@PEBD@2@@std@@V?$allocator@U?$pair@QEBDUMaterialOverride@rendering@gde@@@std@@@5@$0A@@std@@@std@@QEBA_KXZ
	?bucket_count@?$_Hash@V?$_Umap_traits@V?$basic_string@DU?$char_traits@D@std@@V?$allocator@D@2@@std@@V?$list@PEAVActionImplementation_base@input@gde@@V?$allocator@PEAVActionImplementation_base@input@gde@@@std@@@2@V?$_Uhash_compare@V?$basic_string@DU?$char_traits@D@std@@V?$allocator@D@2@@std@@U?$hash@V?$basic_string@DU?$char_traits@D@std@@V?$allocator@D@2@@std@@@2@U?$equal_to@V?$basic_string@DU?$char_traits@D@std@@V?$allocator@D@2@@std@@@2@@2@V?$allocator@U?$pair@$$CBV?$basic_string@DU?$char_traits@D@std@@V?$allocator@D@2@@std@@V?$list@PEAVActionImplementation_base@input@gde@@V?$allocator@PEAVActionImplementation_base@input@gde@@@std@@@2@@std@@@2@$0A@@std@@@std@@QEBA_KXZ
	?c_str@?$basic_string@DU?$char_traits@D@std@@V?$allocator@D@2@@std@@QEBAPEBDXZ
	?capacity@?$_Hash_vec@V?$allocator@V?$_List_unchecked_iterator@V?$_List_val@U?$_List_simple_types@U?$pair@$$CBV?$basic_string@DU?$char_traits@D@std@@V?$allocator@D@2@@std@@V?$list@PEAVActionImplementation_base@input@gde@@V?$allocator@PEAVActionImplementation_base@input@gde@@@std@@@2@@std@@@std@@@std@@@std@@@std@@@std@@QEBA_KXZ
	?capacity@?$_Hash_vec@V?$allocator@V?$_List_unchecked_iterator@V?$_List_val@U?$_List_simple_types@U?$pair@QEBDUMaterialOverride@rendering@gde@@@std@@@std@@@std@@@std@@@std@@@std@@QEBA_KXZ
	?capacity@?$vector@UMaterialTexture@rendering@gde@@V?$allocator@UMaterialTexture@rendering@gde@@@std@@@std@@QEBA_KXZ
	?clear@?$_Hash@V?$_Umap_traits@PEBDUMaterialOverride@rendering@gde@@V?$_Uhash_compare@PEBDU?$hash@PEBD@std@@U?$equal_to@PEBD@2@@std@@V?$allocator@U?$pair@QEBDUMaterialOverride@rendering@gde@@@std@@@5@$0A@@std@@@std@@QEAAXXZ
	?clear@?$_Hash@V?$_Umap_traits@V?$basic_string@DU?$char_traits@D@std@@V?$allocator@D@2@@std@@V?$list@PEAVActionImplementation_base@input@gde@@V?$allocator@PEAVActionImplementation_base@input@gde@@@std@@@2@V?$_Uhash_compare@V?$basic_string@DU?$char_traits@D@std@@V?$allocator@D@2@@std@@U?$hash@V?$basic_string@DU?$char_traits@D@std@@V?$allocator@D@2@@std@@@2@U?$equal_to@V?$basic_string@DU?$char_traits@D@std@@V?$allocator@D@2@@std@@@2@@2@V?$allocator@U?$pair@$$CBV?$basic_string@DU?$char_traits@D@std@@V?$allocator@D@2@@std@@V?$list@PEAVActionImplementation_base@input@gde@@V?$allocator@PEAVActionImplementation_base@input@gde@@@std@@@2@@std@@@2@$0A@@std@@@std@@QEAAXXZ
	?clear@?$list@PEAVActionImplementation_base@input@gde@@V?$allocator@PEAVActionImplementation_base@input@gde@@@std@@@std@@QEAAXXZ
	?clear@?$list@U?$pair@$$CBV?$basic_string@DU?$char_traits@D@std@@V?$allocator@D@2@@std@@V?$list@PEAVActionImplementation_base@input@gde@@V?$allocator@PEAVActionImplementation_base@input@gde@@@std@@@2@@std@@V?$allocator@U?$pair@$$CBV?$basic_string@DU?$char_traits@D@std@@V?$allocator@D@2@@std@@V?$list@PEAVActionImplementation_base@input@gde@@V?$allocator@PEAVActionImplementation_base@input@gde@@@std@@@2@@std@@@2@@std@@QEAAXXZ
	?clear@?$list@U?$pair@QEBDUMaterialOverride@rendering@gde@@@std@@V?$allocator@U?$pair@QEBDUMaterialOverride@rendering@gde@@@std@@@2@@std@@QEAAXXZ
	?compare@?$_Narrow_char_traits@DH@std@@SAHQEBD0_K@Z
	?copy@?$_Char_traits@DH@std@@SAPEADQEADQEBD_K@Z
	?deallocate@?$_Default_allocator_traits@V?$allocator@U?$_List_node@PEAVActionImplementation_base@input@gde@@PEAX@std@@@std@@@std@@SAXAEAV?$allocator@U?$_List_node@PEAVActionImplementation_base@input@gde@@PEAX@std@@@2@QEAU?$_List_node@PEAVActionImplementation_base@input@gde@@PEAX@2@_K@Z
	?deallocate@?$_Default_allocator_traits@V?$allocator@U?$_List_node@PEAVHandler@gde@@PEAX@std@@@std@@@std@@SAXAEAV?$allocator@U?$_List_node@PEAVHandler@gde@@PEAX@std@@@2@QEAU?$_List_node@PEAVHandler@gde@@PEAX@2@_K@Z
	?deallocate@?$_Default_allocator_traits@V?$allocator@U?$_List_node@PEAVObject@gde@@PEAX@std@@@std@@@std@@SAXAEAV?$allocator@U?$_List_node@PEAVObject@gde@@PEAX@std@@@2@QEAU?$_List_node@PEAVObject@gde@@PEAX@2@_K@Z
	?deallocate@?$_Default_allocator_traits@V?$allocator@U?$_List_node@U?$pair@$$CBV?$basic_string@DU?$char_traits@D@std@@V?$allocator@D@2@@std@@V?$list@PEAVActionImplementation_base@input@gde@@V?$allocator@PEAVActionImplementation_base@input@gde@@@std@@@2@@std@@PEAX@std@@@std@@@std@@SAXAEAV?$allocator@U?$_List_node@U?$pair@$$CBV?$basic_string@DU?$char_traits@D@std@@V?$allocator@D@2@@std@@V?$list@PEAVActionImplementation_base@input@gde@@V?$allocator@PEAVActionImplementation_base@input@gde@@@std@@@2@@std@@PEAX@std@@@2@QEAU?$_List_node@U?$pair@$$CBV?$basic_string@DU?$char_traits@D@std@@V?$allocator@D@2@@std@@V?$list@PEAVActionImplementation_base@input@gde@@V?$allocator@PEAVActionImplementation_base@input@gde@@@std@@@2@@std@@PEAX@2@_K@Z
	?deallocate@?$_Default_allocator_traits@V?$allocator@U?$_List_node@U?$pair@QEBDUMaterialOverride@rendering@gde@@@std@@PEAX@std@@@std@@@std@@SAXAEAV?$allocator@U?$_List_node@U?$pair@QEBDUMaterialOverride@rendering@gde@@@std@@PEAX@std@@@2@QEAU?$_List_node@U?$pair@QEBDUMaterialOverride@rendering@gde@@@std@@PEAX@2@_K@Z
	?deallocate@?$_Default_allocator_traits@V?$allocator@U_Container_proxy@std@@@std@@@std@@SAXAEAV?$allocator@U_Container_proxy@std@@@2@QEAU_Container_proxy@2@_K@Z
	?deallocate@?$allocator@D@std@@QEAAXQEAD_K@Z
	?deallocate@?$allocator@PEAH@std@@QEAAXQEAPEAH_K@Z
	?deallocate@?$allocator@PEAM@std@@QEAAXQEAPEAM_K@Z
	?deallocate@?$allocator@PEAVDrawCall@rendering@gde@@@std@@QEAAXQEAPEAVDrawCall@rendering@gde@@_K@Z
	?deallocate@?$allocator@U?$_List_node@PEAVActionImplementation_base@input@gde@@PEAX@std@@@std@@QEAAXQEAU?$_List_node@PEAVActionImplementation_base@input@gde@@PEAX@2@_K@Z
	?deallocate@?$allocator@U?$_List_node@PEAVEarlyUpdate@gde@@PEAX@std@@@std@@QEAAXQEAU?$_List_node@PEAVEarlyUpdate@gde@@PEAX@2@_K@Z
	?deallocate@?$allocator@U?$_List_node@PEAVInputPlayer@gde@@PEAX@std@@@std@@QEAAXQEAU?$_List_node@PEAVInputPlayer@gde@@PEAX@2@_K@Z
	?deallocate@?$allocator@U?$_List_node@PEAVLateUpdate@gde@@PEAX@std@@@std@@QEAAXQEAU?$_List_node@PEAVLateUpdate@gde@@PEAX@2@_K@Z
	?deallocate@?$allocator@U?$_List_node@PEAVLightObject@gde@@PEAX@std@@@std@@QEAAXQEAU?$_List_node@PEAVLightObject@gde@@PEAX@2@_K@Z
	?deallocate@?$allocator@U?$_List_node@PEAVObject@gde@@PEAX@std@@@std@@QEAAXQEAU?$_List_node@PEAVObject@gde@@PEAX@2@_K@Z
	?deallocate@?$allocator@U?$_List_node@PEAVUpdate@gde@@PEAX@std@@@std@@QEAAXQEAU?$_List_node@PEAVUpdate@gde@@PEAX@2@_K@Z
	?deallocate@?$allocator@U?$_List_node@U?$pair@$$CBV?$basic_string@DU?$char_traits@D@std@@V?$allocator@D@2@@std@@V?$list@PEAVActionImplementation_base@input@gde@@V?$allocator@PEAVActionImplementation_base@input@gde@@@std@@@2@@std@@PEAX@std@@@std@@QEAAXQEAU?$_List_node@U?$pair@$$CBV?$basic_string@DU?$char_traits@D@std@@V?$allocator@D@2@@std@@V?$list@PEAVActionImplementation_base@input@gde@@V?$allocator@PEAVActionImplementation_base@input@gde@@@std@@@2@@std@@PEAX@2@_K@Z
	?deallocate@?$allocator@U?$_List_node@U?$pair@QEBDUMaterialOverride@rendering@gde@@@std@@PEAX@std@@@std@@QEAAXQEAU?$_List_node@U?$pair@QEBDUMaterialOverride@rendering@gde@@@std@@PEAX@2@_K@Z
	?deallocate@?$allocator@UMaterialTexture@rendering@gde@@@std@@QEAAXQEAUMaterialTexture@rendering@gde@@_K@Z
	?deallocate@?$allocator@V?$_List_unchecked_iterator@V?$_List_val@U?$_List_simple_types@U?$pair@$$CBV?$basic_string@DU?$char_traits@D@std@@V?$allocator@D@2@@std@@V?$list@PEAVActionImplementation_base@input@gde@@V?$allocator@PEAVActionImplementation_base@input@gde@@@std@@@2@@std@@@std@@@std@@@std@@@std@@QEAAXQEAV?$_List_unchecked_iterator@V?$_List_val@U?$_List_simple_types@U?$pair@$$CBV?$basic_string@DU?$char_traits@D@std@@V?$allocator@D@2@@std@@V?$list@PEAVActionImplementation_base@input@gde@@V?$allocator@PEAVActionImplementation_base@input@gde@@@std@@@2@@std@@@std@@@std@@@2@_K@Z
	?deallocate@?$allocator@V?$_List_unchecked_iterator@V?$_List_val@U?$_List_simple_types@U?$pair@QEBDUMaterialOverride@rendering@gde@@@std@@@std@@@std@@@std@@@std@@QEAAXQEAV?$_List_unchecked_iterator@V?$_List_val@U?$_List_simple_types@U?$pair@QEBDUMaterialOverride@rendering@gde@@@std@@@std@@@std@@@2@_K@Z
	?end@?$_Hash@V?$_Umap_traits@V?$basic_string@DU?$char_traits@D@std@@V?$allocator@D@2@@std@@V?$list@PEAVActionImplementation_base@input@gde@@V?$allocator@PEAVActionImplementation_base@input@gde@@@std@@@2@V?$_Uhash_compare@V?$basic_string@DU?$char_traits@D@std@@V?$allocator@D@2@@std@@U?$hash@V?$basic_string@DU?$char_traits@D@std@@V?$allocator@D@2@@std@@@2@U?$equal_to@V?$basic_string@DU?$char_traits@D@std@@V?$allocator@D@2@@std@@@2@@2@V?$allocator@U?$pair@$$CBV?$basic_string@DU?$char_traits@D@std@@V?$allocator@D@2@@std@@V?$list@PEAVActionImplementation_base@input@gde@@V?$allocator@PEAVActionImplementation_base@input@gde@@@std@@@2@@std@@@2@$0A@@std@@@std@@QEAA?AV?$_List_iterator@V?$_List_val@U?$_List_simple_types@U?$pair@$$CBV?$basic_string@DU?$char_traits@D@std@@V?$allocator@D@2@@std@@V?$list@PEAVActionImplementation_base@input@gde@@V?$allocator@PEAVActionImplementation_base@input@gde@@@std@@@2@@std@@@std@@@std@@@2@XZ
	?end@?$initializer_list@PEAVDrawCall@rendering@gde@@@std@@QEBAPEBQEAVDrawCall@rendering@gde@@XZ
	?end@?$list@U?$pair@$$CBV?$basic_string@DU?$char_traits@D@std@@V?$allocator@D@2@@std@@V?$list@PEAVActionImplementation_base@input@gde@@V?$allocator@PEAVActionImplementation_base@input@gde@@@std@@@2@@std@@V?$allocator@U?$pair@$$CBV?$basic_string@DU?$char_traits@D@std@@V?$allocator@D@2@@std@@V?$list@PEAVActionImplementation_base@input@gde@@V?$allocator@PEAVActionImplementation_base@input@gde@@@std@@@2@@std@@@2@@std@@QEAA?AV?$_List_iterator@V?$_List_val@U?$_List_simple_types@U?$pair@$$CBV?$basic_string@DU?$char_traits@D@std@@V?$allocator@D@2@@std@@V?$list@PEAVActionImplementation_base@input@gde@@V?$allocator@PEAVActionImplementation_base@input@gde@@@std@@@2@@std@@@std@@@std@@@2@XZ
	?length@?$_Narrow_char_traits@DH@std@@SA_KQEBD@Z
	?max_load_factor@?$_Hash@V?$_Umap_traits@PEBDUMaterialOverride@rendering@gde@@V?$_Uhash_compare@PEBDU?$hash@PEBD@std@@U?$equal_to@PEBD@2@@std@@V?$allocator@U?$pair@QEBDUMaterialOverride@rendering@gde@@@std@@@5@$0A@@std@@@std@@QEBAMXZ
	?max_load_factor@?$_Hash@V?$_Umap_traits@V?$basic_string@DU?$char_traits@D@std@@V?$allocator@D@2@@std@@V?$list@PEAVActionImplementation_base@input@gde@@V?$allocator@PEAVActionImplementation_base@input@gde@@@std@@@2@V?$_Uhash_compare@V?$basic_string@DU?$char_traits@D@std@@V?$allocator@D@2@@std@@U?$hash@V?$basic_string@DU?$char_traits@D@std@@V?$allocator@D@2@@std@@@2@U?$equal_to@V?$basic_string@DU?$char_traits@D@std@@V?$allocator@D@2@@std@@@2@@2@V?$allocator@U?$pair@$$CBV?$basic_string@DU?$char_traits@D@std@@V?$allocator@D@2@@std@@V?$list@PEAVActionImplementation_base@input@gde@@V?$allocator@PEAVActionImplementation_base@input@gde@@@std@@@2@@std@@@2@$0A@@std@@@std@@QEBAMXZ
	?max_size@?$_Default_allocator_traits@V?$allocator@D@std@@@std@@SA_KAEBV?$allocator@D@2@@Z
	?max_size@?$_Default_allocator_traits@V?$allocator@PEAVDrawCall@rendering@gde@@@std@@@std@@SA_KAEBV?$allocator@PEAVDrawCall@rendering@gde@@@2@@Z
	?max_size@?$_Default_allocator_traits@V?$allocator@U?$_List_node@PEAVActionImplementation_base@input@gde@@PEAX@std@@@std@@@std@@SA_KAEBV?$allocator@U?$_List_node@PEAVActionImplementation_base@input@gde@@PEAX@std@@@2@@Z
	?max_size@?$_Default_allocator_traits@V?$allocator@U?$_List_node@PEAVEarlyUpdate@gde@@PEAX@std@@@std@@@std@@SA_KAEBV?$allocator@U?$_List_node@PEAVEarlyUpdate@gde@@PEAX@std@@@2@@Z
	?max_size@?$_Default_allocator_traits@V?$allocator@U?$_List_node@PEAVInputPlayer@gde@@PEAX@std@@@std@@@std@@SA_KAEBV?$allocator@U?$_List_node@PEAVInputPlayer@gde@@PEAX@std@@@2@@Z
	?max_size@?$_Default_allocator_traits@V?$allocator@U?$_List_node@PEAVLateUpdate@gde@@PEAX@std@@@std@@@std@@SA_KAEBV?$allocator@U?$_List_node@PEAVLateUpdate@gde@@PEAX@std@@@2@@Z
	?max_size@?$_Default_allocator_traits@V?$allocator@U?$_List_node@PEAVLightObject@gde@@PEAX@std@@@std@@@std@@SA_KAEBV?$allocator@U?$_List_node@PEAVLightObject@gde@@PEAX@std@@@2@@Z
	?max_size@?$_Default_allocator_traits@V?$allocator@U?$_List_node@PEAVObject@gde@@PEAX@std@@@std@@@std@@SA_KAEBV?$allocator@U?$_List_node@PEAVObject@gde@@PEAX@std@@@2@@Z
	?max_size@?$_Default_allocator_traits@V?$allocator@U?$_List_node@PEAVUpdate@gde@@PEAX@std@@@std@@@std@@SA_KAEBV?$allocator@U?$_List_node@PEAVUpdate@gde@@PEAX@std@@@2@@Z
	?max_size@?$_Default_allocator_traits@V?$allocator@U?$_List_node@U?$pair@$$CBV?$basic_string@DU?$char_traits@D@std@@V?$allocator@D@2@@std@@V?$list@PEAVActionImplementation_base@input@gde@@V?$allocator@PEAVActionImplementation_base@input@gde@@@std@@@2@@std@@PEAX@std@@@std@@@std@@SA_KAEBV?$allocator@U?$_List_node@U?$pair@$$CBV?$basic_string@DU?$char_traits@D@std@@V?$allocator@D@2@@std@@V?$list@PEAVActionImplementation_base@input@gde@@V?$allocator@PEAVActionImplementation_base@input@gde@@@std@@@2@@std@@PEAX@std@@@2@@Z
	?max_size@?$_Default_allocator_traits@V?$allocator@U?$_List_node@U?$pair@QEBDUMaterialOverride@rendering@gde@@@std@@PEAX@std@@@std@@@std@@SA_KAEBV?$allocator@U?$_List_node@U?$pair@QEBDUMaterialOverride@rendering@gde@@@std@@PEAX@std@@@2@@Z
	?max_size@?$_Default_allocator_traits@V?$allocator@UMaterialTexture@rendering@gde@@@std@@@std@@SA_KAEBV?$allocator@UMaterialTexture@rendering@gde@@@2@@Z
	?max_size@?$_Default_allocator_traits@V?$allocator@V?$_List_unchecked_iterator@V?$_List_val@U?$_List_simple_types@U?$pair@$$CBV?$basic_string@DU?$char_traits@D@std@@V?$allocator@D@2@@std@@V?$list@PEAVActionImplementation_base@input@gde@@V?$allocator@PEAVActionImplementation_base@input@gde@@@std@@@2@@std@@@std@@@std@@@std@@@std@@@std@@SA_KAEBV?$allocator@V?$_List_unchecked_iterator@V?$_List_val@U?$_List_simple_types@U?$pair@$$CBV?$basic_string@DU?$char_traits@D@std@@V?$allocator@D@2@@std@@V?$list@PEAVActionImplementation_base@input@gde@@V?$allocator@PEAVActionImplementation_base@input@gde@@@std@@@2@@std@@@std@@@std@@@std@@@2@@Z
	?max_size@?$_Default_allocator_traits@V?$allocator@V?$_List_unchecked_iterator@V?$_List_val@U?$_List_simple_types@U?$pair@QEBDUMaterialOverride@rendering@gde@@@std@@@std@@@std@@@std@@@std@@@std@@SA_KAEBV?$allocator@V?$_List_unchecked_iterator@V?$_List_val@U?$_List_simple_types@U?$pair@QEBDUMaterialOverride@rendering@gde@@@std@@@std@@@std@@@std@@@2@@Z
	?max_size@?$_Hash_vec@V?$allocator@V?$_List_unchecked_iterator@V?$_List_val@U?$_List_simple_types@U?$pair@$$CBV?$basic_string@DU?$char_traits@D@std@@V?$allocator@D@2@@std@@V?$list@PEAVActionImplementation_base@input@gde@@V?$allocator@PEAVActionImplementation_base@input@gde@@@std@@@2@@std@@@std@@@std@@@std@@@std@@@std@@QEBA_KXZ
	?max_size@?$_Hash_vec@V?$allocator@V?$_List_unchecked_iterator@V?$_List_val@U?$_List_simple_types@U?$pair@QEBDUMaterialOverride@rendering@gde@@@std@@@std@@@std@@@std@@@std@@@std@@QEBA_KXZ
	?max_size@?$basic_string@DU?$char_traits@D@std@@V?$allocator@D@2@@std@@QEBA_KXZ
	?max_size@?$list@PEAVActionImplementation_base@input@gde@@V?$allocator@PEAVActionImplementation_base@input@gde@@@std@@@std@@QEBA_KXZ
	?max_size@?$list@PEAVEarlyUpdate@gde@@V?$allocator@PEAVEarlyUpdate@gde@@@std@@@std@@QEBA_KXZ
	?max_size@?$list@PEAVInputPlayer@gde@@V?$allocator@PEAVInputPlayer@gde@@@std@@@std@@QEBA_KXZ
	?max_size@?$list@PEAVLateUpdate@gde@@V?$allocator@PEAVLateUpdate@gde@@@std@@@std@@QEBA_KXZ
	?max_size@?$list@PEAVLightObject@gde@@V?$allocator@PEAVLightObject@gde@@@std@@@std@@QEBA_KXZ
	?max_size@?$list@PEAVObject@gde@@V?$allocator@PEAVObject@gde@@@std@@@std@@QEBA_KXZ
	?max_size@?$list@PEAVUpdate@gde@@V?$allocator@PEAVUpdate@gde@@@std@@@std@@QEBA_KXZ
	?max_size@?$list@U?$pair@$$CBV?$basic_string@DU?$char_traits@D@std@@V?$allocator@D@2@@std@@V?$list@PEAVActionImplementation_base@input@gde@@V?$allocator@PEAVActionImplementation_base@input@gde@@@std@@@2@@std@@V?$allocator@U?$pair@$$CBV?$basic_string@DU?$char_traits@D@std@@V?$allocator@D@2@@std@@V?$list@PEAVActionImplementation_base@input@gde@@V?$allocator@PEAVActionImplementation_base@input@gde@@@std@@@2@@std@@@2@@std@@QEBA_KXZ
	?max_size@?$list@U?$pair@QEBDUMaterialOverride@rendering@gde@@@std@@V?$allocator@U?$pair@QEBDUMaterialOverride@rendering@gde@@@std@@@2@@std@@QEBA_KXZ
	?max_size@?$vector@PEAVDrawCall@rendering@gde@@V?$allocator@PEAVDrawCall@rendering@gde@@@std@@@std@@QEBA_KXZ
	?max_size@?$vector@UMaterialTexture@rendering@gde@@V?$allocator@UMaterialTexture@rendering@gde@@@std@@@std@@QEBA_KXZ
	?push_back@?$list@PEAVActionImplementation_base@input@gde@@V?$allocator@PEAVActionImplementation_base@input@gde@@@std@@@std@@QEAAXAEBQEAVActionImplementation_base@input@gde@@@Z
	?push_back@?$list@PEAVEarlyUpdate@gde@@V?$allocator@PEAVEarlyUpdate@gde@@@std@@@std@@QEAAXAEBQEAVEarlyUpdate@gde@@@Z
	?push_back@?$list@PEAVInputPlayer@gde@@V?$allocator@PEAVInputPlayer@gde@@@std@@@std@@QEAAXAEBQEAVInputPlayer@gde@@@Z
	?push_back@?$list@PEAVLateUpdate@gde@@V?$allocator@PEAVLateUpdate@gde@@@std@@@std@@QEAAXAEBQEAVLateUpdate@gde@@@Z
	?push_back@?$list@PEAVLightObject@gde@@V?$allocator@PEAVLightObject@gde@@@std@@@std@@QEAAXAEBQEAVLightObject@gde@@@Z
	?push_back@?$list@PEAVObject@gde@@V?$allocator@PEAVObject@gde@@@std@@@std@@QEAAXAEBQEAVObject@gde@@@Z
	?push_back@?$list@PEAVUpdate@gde@@V?$allocator@PEAVUpdate@gde@@@std@@@std@@QEAAXAEBQEAVUpdate@gde@@@Z
	?push_back@?$vector@UMaterialTexture@rendering@gde@@V?$allocator@UMaterialTexture@rendering@gde@@@std@@@std@@QEAAXAEBUMaterialTexture@rendering@gde@@@Z
	?select_on_container_copy_construction@?$_Default_allocator_traits@V?$allocator@D@std@@@std@@SA?AV?$allocator@D@2@AEBV32@@Z
	?select_on_container_copy_construction@?$_Default_allocator_traits@V?$allocator@PEAVDrawCall@rendering@gde@@@std@@@std@@SA?AV?$allocator@PEAVDrawCall@rendering@gde@@@2@AEBV32@@Z
	?select_on_container_copy_construction@?$_Default_allocator_traits@V?$allocator@U?$_List_node@PEAVActionImplementation_base@input@gde@@PEAX@std@@@std@@@std@@SA?AV?$allocator@U?$_List_node@PEAVActionImplementation_base@input@gde@@PEAX@std@@@2@AEBV32@@Z
	?size@?$_Hash_vec@V?$allocator@V?$_List_unchecked_iterator@V?$_List_val@U?$_List_simple_types@U?$pair@$$CBV?$basic_string@DU?$char_traits@D@std@@V?$allocator@D@2@@std@@V?$list@PEAVActionImplementation_base@input@gde@@V?$allocator@PEAVActionImplementation_base@input@gde@@@std@@@2@@std@@@std@@@std@@@std@@@std@@@std@@QEBA_KXZ
	?size@?$_Hash_vec@V?$allocator@V?$_List_unchecked_iterator@V?$_List_val@U?$_List_simple_types@U?$pair@QEBDUMaterialOverride@rendering@gde@@@std@@@std@@@std@@@std@@@std@@@std@@QEBA_KXZ
	?size@?$basic_string@DU?$char_traits@D@std@@V?$allocator@D@2@@std@@QEBA_KXZ
	?size@?$initializer_list@PEAVDrawCall@rendering@gde@@@std@@QEBA_KXZ
	?size@?$vector@PEAVDrawCall@rendering@gde@@V?$allocator@PEAVDrawCall@rendering@gde@@@std@@@std@@QEBA_KXZ
	?what@exception@std@@UEBAPEBDXZ
